ARM GAS  C:\Users\Coal\AppData\Local\Temp\ccdGM3NX.s 			page 1


   1              		.syntax unified
   2              		.cpu cortex-m4
   3              		.eabi_attribute 27, 1
   4              		.fpu fpv4-sp-d16
   5              		.eabi_attribute 20, 1
   6              		.eabi_attribute 21, 1
   7              		.eabi_attribute 23, 3
   8              		.eabi_attribute 24, 1
   9              		.eabi_attribute 25, 1
  10              		.eabi_attribute 26, 1
  11              		.eabi_attribute 30, 1
  12              		.eabi_attribute 34, 1
  13              		.eabi_attribute 18, 4
  14              		.thumb
  15              		.syntax unified
  16              		.file	"proximity.c"
  17              		.text
  18              	.Ltext0:
  19              		.cfi_sections	.debug_frame
  20              		.section	.text.get_array,"ax",%progbits
  21              		.align	2
  22              		.global	get_array
  23              		.thumb
  24              		.thumb_func
  25              		.type	get_array, %function
  26              	get_array:
  27              	.LFB620:
  28              		.file 1 "proximity.c"
   1:proximity.c   **** /******************************************************************************
   2:proximity.c   **** * File Name: proximity.c
   3:proximity.c   **** *
   4:proximity.c   **** * Version: 1.00
   5:proximity.c   **** *
   6:proximity.c   **** * Description: This file contains functions that handle the initialization and
   7:proximity.c   **** *              the scanning of the CapSense Proximity and the Buttons
   8:proximity.c   **** *
   9:proximity.c   **** * Related Document: CE218135_BLE_Proximity.pdf
  10:proximity.c   **** *
  11:proximity.c   **** * Hardware Dependency: CY8CKIT-062-BLE PSoC 6 BLE Pioneer Kit
  12:proximity.c   **** *                      CY8CKIT-028-EPD E-INK Display Shield
  13:proximity.c   **** *
  14:proximity.c   **** ******************************************************************************
  15:proximity.c   **** * Copyright (2017), Cypress Semiconductor Corporation.
  16:proximity.c   **** ******************************************************************************
  17:proximity.c   **** * This software, including source code, documentation and related materials
  18:proximity.c   **** * ("Software") is owned by Cypress Semiconductor Corporation (Cypress) and is
  19:proximity.c   **** * protected by and subject to worldwide patent protection (United States and 
  20:proximity.c   **** * foreign), United States copyright laws and international treaty provisions. 
  21:proximity.c   **** * Cypress hereby grants to licensee a personal, non-exclusive, non-transferable
  22:proximity.c   **** * license to copy, use, modify, create derivative works of, and compile the 
  23:proximity.c   **** * Cypress source code and derivative works for the sole purpose of creating 
  24:proximity.c   **** * custom software in support of licensee product, such licensee product to be
  25:proximity.c   **** * used only in conjunction with Cypress's integrated circuit as specified in the
  26:proximity.c   **** * applicable agreement. Any reproduction, modification, translation, compilation,
  27:proximity.c   **** * or representation of this Software except as specified above is prohibited 
  28:proximity.c   **** * without the express written permission of Cypress.
  29:proximity.c   **** * 
ARM GAS  C:\Users\Coal\AppData\Local\Temp\ccdGM3NX.s 			page 2


  30:proximity.c   **** * Disclaimer: THIS SOFTWARE IS PROVIDED AS-IS, WITH NO WARRANTY OF ANY KIND, 
  31:proximity.c   **** * EXPRESS OR IMPLIED, INCLUDING, BUT NOT LIMITED TO, NONINFRINGEMENT, IMPLIED 
  32:proximity.c   **** * WARRANTIES OF MERCHANTABILITY AND FITNESS FOR A PARTICULAR PURPOSE.
  33:proximity.c   **** * Cypress reserves the right to make changes to the Software without notice. 
  34:proximity.c   **** * Cypress does not assume any liability arising out of the application or use
  35:proximity.c   **** * of Software or any product or circuit described in the Software. Cypress does
  36:proximity.c   **** * not authorize its products for use as critical components in any products 
  37:proximity.c   **** * where a malfunction or failure may reasonably be expected to result in 
  38:proximity.c   **** * significant injury or death ("ACTIVE Risk Product"). By including Cypress's 
  39:proximity.c   **** * product in a ACTIVE Risk Product, the manufacturer of such system or application
  40:proximity.c   **** * assumes all risk of such use and in doing so indemnifies Cypress against all
  41:proximity.c   **** * liability. Use of this Software may be limited by and subject to the applicable
  42:proximity.c   **** * Cypress software license agreement.
  43:proximity.c   **** *****************************************************************************/
  44:proximity.c   **** /*******************************************************************************
  45:proximity.c   **** * This file contains functions that handle the initialization and the scanning of 
  46:proximity.c   **** * the CapSense Proximity and the Buttons
  47:proximity.c   **** *******************************************************************************/
  48:proximity.c   **** 
  49:proximity.c   **** /* Header file includes */
  50:proximity.c   **** #include <project.h>
  51:proximity.c   **** #include "proximity.h"
  52:proximity.c   **** #include "math.h"
  53:proximity.c   **** #include <stdio.h>
  54:proximity.c   **** /* Maximum value of CapSense proximity sensor data accepted by the CySmart app */
  55:proximity.c   **** #define PROX_MAX_VALUE  (uint16_t)(0x00FFu)
  56:proximity.c   **** 
  57:proximity.c   **** /*******************************************************************************
  58:proximity.c   **** * Function Name: proximity_data_t* proximity_data_t* GetProximityData(void)
  59:proximity.c   **** ********************************************************************************
  60:proximity.c   **** * Summary:
  61:proximity.c   **** *  Function that scans CapSense proximity sensor, processes information and then
  62:proximity.c   **** *  returns the data
  63:proximity.c   **** *
  64:proximity.c   **** * Parameters:
  65:proximity.c   **** *  None
  66:proximity.c   **** *
  67:proximity.c   **** * Return:
  68:proximity.c   **** *  proximity_data_t*  : address of the data-structure that stores proximity 
  69:proximity.c   **** *                       information
  70:proximity.c   **** *
  71:proximity.c   **** *******************************************************************************/
  72:proximity.c   **** void get_array(double *mass)
  73:proximity.c   **** {
  29              		.loc 1 73 0
  30              		.cfi_startproc
  31              		@ args = 0, pretend = 0, frame = 0
  32              		@ frame_needed = 0, uses_anonymous_args = 0
  33              		@ link register save eliminated.
  34              	.LVL0:
  35 0000 30B4     		push	{r4, r5}
  36              		.cfi_def_cfa_offset 8
  37              		.cfi_offset 4, -8
  38              		.cfi_offset 5, -4
  39              	.LVL1:
  40              	.LBB2:
  74:proximity.c   ****     for (int i=0; i < 10; i++)
ARM GAS  C:\Users\Coal\AppData\Local\Temp\ccdGM3NX.s 			page 3


  41              		.loc 1 74 0
  42 0002 0022     		movs	r2, #0
  43 0004 08E0     		b	.L2
  44              	.LVL2:
  45              	.L3:
  75:proximity.c   ****     masszero[i] = mass[i];
  46              		.loc 1 75 0 discriminator 3
  47 0006 D300     		lsls	r3, r2, #3
  48 0008 C118     		adds	r1, r0, r3
  49 000a D1E90045 		ldrd	r4, [r1]
  50 000e 0449     		ldr	r1, .L5
  51 0010 0B44     		add	r3, r3, r1
  52 0012 C3E90045 		strd	r4, [r3]
  74:proximity.c   ****     for (int i=0; i < 10; i++)
  53              		.loc 1 74 0 discriminator 3
  54 0016 0132     		adds	r2, r2, #1
  55              	.LVL3:
  56              	.L2:
  74:proximity.c   ****     for (int i=0; i < 10; i++)
  57              		.loc 1 74 0 is_stmt 0 discriminator 1
  58 0018 092A     		cmp	r2, #9
  59 001a F4DD     		ble	.L3
  60              	.LBE2:
  76:proximity.c   **** }
  61              		.loc 1 76 0 is_stmt 1
  62 001c 30BC     		pop	{r4, r5}
  63              		.cfi_restore 5
  64              		.cfi_restore 4
  65              		.cfi_def_cfa_offset 0
  66 001e 7047     		bx	lr
  67              	.L6:
  68              		.align	2
  69              	.L5:
  70 0020 00000000 		.word	masszero
  71              		.cfi_endproc
  72              	.LFE620:
  73              		.size	get_array, .-get_array
  74              		.section	.text.GetProximityData,"ax",%progbits
  75              		.align	2
  76              		.global	GetProximityData
  77              		.thumb
  78              		.thumb_func
  79              		.type	GetProximityData, %function
  80              	GetProximityData:
  81              	.LFB621:
  77:proximity.c   **** proximity_data_t* GetProximityData(void)
  78:proximity.c   **** {
  82              		.loc 1 78 0
  83              		.cfi_startproc
  84              		@ args = 0, pretend = 0, frame = 40
  85              		@ frame_needed = 0, uses_anonymous_args = 0
  86 0000 00B5     		push	{lr}
  87              		.cfi_def_cfa_offset 4
  88              		.cfi_offset 14, -4
  89 0002 8BB0     		sub	sp, sp, #44
  90              		.cfi_def_cfa_offset 48
  79:proximity.c   ****     /* Structure that stores the current CapSense proximity information */
ARM GAS  C:\Users\Coal\AppData\Local\Temp\ccdGM3NX.s 			page 4


  80:proximity.c   ****     proximity_data_t  static currentProximityData = 
  81:proximity.c   ****     {    
  82:proximity.c   ****         /* Initialize the flag that track updates to proximity information */
  83:proximity.c   ****         .proximityDataUpdated = false,
  84:proximity.c   ****         /* Initialize the proximity information */
  85:proximity.c   ****         .proximityData = 0u,
  86:proximity.c   ****     };
  87:proximity.c   ****         
  88:proximity.c   ****     /* Variables used to store the instantaneous proximity information */
  89:proximity.c   ****     uint8_t  static proximity  = 0u;
  90:proximity.c   **** 
  91:proximity.c   ****     /* Do this only when the CapSense isn't busy with a previous operation */
  92:proximity.c   ****     if (CapSense_IsBusy() == CapSense_NOT_BUSY)
  91              		.loc 1 92 0
  92 0004 FFF7FEFF 		bl	CapSense_IsBusy
  93              	.LVL4:
  94 0008 0028     		cmp	r0, #0
  95 000a 65D1     		bne	.L8
  96              	.LBB3:
  93:proximity.c   ****     {
  94:proximity.c   ****         /* Process data from the proximity widget */
  95:proximity.c   **** 		CapSense_ProcessAllWidgets();
  97              		.loc 1 95 0
  98 000c FFF7FEFF 		bl	CapSense_ProcessAllWidgets
  99              	.LVL5:
  96:proximity.c   ****         
  97:proximity.c   **** //        /* Check if the signal is greater than the finger threshold */
  98:proximity.c   **** //        if(CapSense_PROXIMITY0_SNS0_DIFF_VALUE > 
  99:proximity.c   **** //           CapSense_PROXIMITY0_FINGER_TH_VALUE)
 100:proximity.c   **** //        {
 101:proximity.c   **** //            /*If proximity value is not within the range, cap the value */
 102:proximity.c   **** //    		if((CapSense_PROXIMITY0_SNS0_DIFF_VALUE -
 103:proximity.c   **** //                CapSense_PROXIMITY0_FINGER_TH_VALUE) 
 104:proximity.c   **** //                <= PROX_MAX_VALUE)
 105:proximity.c   **** //    		{
 106:proximity.c   **** //                /* Store the proximity data */
 107:proximity.c   **** //    	         proximity =  (uint8_t)(CapSense_PROXIMITY0_SNS0_DIFF_VALUE - 
 108:proximity.c   **** //                                        CapSense_PROXIMITY0_FINGER_TH_VALUE);
 109:proximity.c   **** //    		}
 110:proximity.c   **** //            /* Store the maximum value otherwise */
 111:proximity.c   **** //            else
 112:proximity.c   **** //            {
 113:proximity.c   **** //                proximity = (uint8_t)PROX_MAX_VALUE;
 114:proximity.c   **** //            }
 115:proximity.c   **** //        }
 116:proximity.c   **** //        /* Clear the value if the signal is less than the finger threshold */
 117:proximity.c   **** //        else
 118:proximity.c   **** //        {
 119:proximity.c   **** //           proximity = 0u; 
 120:proximity.c   **** //        }
 121:proximity.c   **** //    
 122:proximity.c   **** 
 123:proximity.c   ****         double diff = CapSense_BUTTON0_FINGER_TH_VALUE;
 124:proximity.c   **** 
 125:proximity.c   ****   /*      
 126:proximity.c   ****         double mass[10] = {fabs(CapSense_BUTTON0_SNS0_RAW0_VALUE-masszero[0]), fabs(CapSense_BUTTON
 127:proximity.c   ****                            fabs(CapSense_BUTTON3_SNS0_RAW0_VALUE-masszero[3]), fabs(CapSense_BUTTON
ARM GAS  C:\Users\Coal\AppData\Local\Temp\ccdGM3NX.s 			page 5


 128:proximity.c   ****                            fabs(CapSense_BUTTON6_SNS0_RAW0_VALUE-masszero[6]), fabs(CapSense_BUTTON
 129:proximity.c   ****                            fabs(CapSense_BUTTON9_SNS0_RAW0_VALUE-masszero[9])};
 130:proximity.c   ****        */
 131:proximity.c   ****         int mass[10] = {CapSense_SNS_STATUS0_VALUE, CapSense_SNS_STATUS1_VALUE, CapSense_SNS_STATUS
 100              		.loc 1 131 0
 101 0010 3A4B     		ldr	r3, .L26
 102 0012 1A7E     		ldrb	r2, [r3, #24]	@ zero_extendqisi2
 103 0014 0092     		str	r2, [sp]
 104 0016 5A7E     		ldrb	r2, [r3, #25]	@ zero_extendqisi2
 105 0018 0192     		str	r2, [sp, #4]
 106 001a 9A7E     		ldrb	r2, [r3, #26]	@ zero_extendqisi2
 107 001c 0292     		str	r2, [sp, #8]
 132:proximity.c   ****                            CapSense_SNS_STATUS3_VALUE, CapSense_SNS_STATUS4_VALUE, CapSense_SNS_STA
 108              		.loc 1 132 0
 109 001e DA7E     		ldrb	r2, [r3, #27]	@ zero_extendqisi2
 131:proximity.c   ****                            CapSense_SNS_STATUS3_VALUE, CapSense_SNS_STATUS4_VALUE, CapSense_SNS_STA
 110              		.loc 1 131 0
 111 0020 0392     		str	r2, [sp, #12]
 112              		.loc 1 132 0
 113 0022 1A7F     		ldrb	r2, [r3, #28]	@ zero_extendqisi2
 131:proximity.c   ****                            CapSense_SNS_STATUS3_VALUE, CapSense_SNS_STATUS4_VALUE, CapSense_SNS_STA
 114              		.loc 1 131 0
 115 0024 0492     		str	r2, [sp, #16]
 116              		.loc 1 132 0
 117 0026 5A7F     		ldrb	r2, [r3, #29]	@ zero_extendqisi2
 131:proximity.c   ****                            CapSense_SNS_STATUS3_VALUE, CapSense_SNS_STATUS4_VALUE, CapSense_SNS_STA
 118              		.loc 1 131 0
 119 0028 0592     		str	r2, [sp, #20]
 133:proximity.c   ****                            CapSense_SNS_STATUS6_VALUE, CapSense_SNS_STATUS7_VALUE, CapSense_SNS_STA
 120              		.loc 1 133 0
 121 002a 9A7F     		ldrb	r2, [r3, #30]	@ zero_extendqisi2
 131:proximity.c   ****                            CapSense_SNS_STATUS3_VALUE, CapSense_SNS_STATUS4_VALUE, CapSense_SNS_STA
 122              		.loc 1 131 0
 123 002c 0692     		str	r2, [sp, #24]
 124              		.loc 1 133 0
 125 002e DA7F     		ldrb	r2, [r3, #31]	@ zero_extendqisi2
 131:proximity.c   ****                            CapSense_SNS_STATUS3_VALUE, CapSense_SNS_STATUS4_VALUE, CapSense_SNS_STA
 126              		.loc 1 131 0
 127 0030 0792     		str	r2, [sp, #28]
 128              		.loc 1 133 0
 129 0032 93F82020 		ldrb	r2, [r3, #32]	@ zero_extendqisi2
 131:proximity.c   ****                            CapSense_SNS_STATUS3_VALUE, CapSense_SNS_STATUS4_VALUE, CapSense_SNS_STA
 130              		.loc 1 131 0
 131 0036 0892     		str	r2, [sp, #32]
 134:proximity.c   ****                            CapSense_SNS_STATUS9_VALUE};
 132              		.loc 1 134 0
 133 0038 93F82130 		ldrb	r3, [r3, #33]	@ zero_extendqisi2
 131:proximity.c   ****                            CapSense_SNS_STATUS3_VALUE, CapSense_SNS_STATUS4_VALUE, CapSense_SNS_STA
 134              		.loc 1 131 0
 135 003c 0993     		str	r3, [sp, #36]
 136              	.LVL6:
 137              	.LBB4:
 135:proximity.c   **** 
 136:proximity.c   ****         /*
 137:proximity.c   ****         if ((fabs(mass[9] - mass[5]) <= diff) && (mass[9] - mass[8] <= diff))
 138:proximity.c   ****         { // рівень води нижче середини
 139:proximity.c   ****         for (i = 5; i >= 0; i--)
ARM GAS  C:\Users\Coal\AppData\Local\Temp\ccdGM3NX.s 			page 6


 140:proximity.c   ****         {
 141:proximity.c   ****         h2 = mass[i];
 142:proximity.c   ****         h1 = mass[i-1];
 143:proximity.c   ****         if (fabs(h2 - h1) <= diff)
 144:proximity.c   ****         continue; else {proximity = i * 25u; break;}
 145:proximity.c   ****         } 
 146:proximity.c   ****         if (i == 0) proximity = 0u; 
 147:proximity.c   ****         }
 148:proximity.c   ****         else
 149:proximity.c   ****         {// рівень води вище середини
 150:proximity.c   ****         for (i = 9; i >5; i--)
 151:proximity.c   ****         {
 152:proximity.c   ****         h2 = mass[i];
 153:proximity.c   ****         h1 = mass[i-1];
 154:proximity.c   ****         if (fabs(h2 - h1) <= diff)
 155:proximity.c   ****         continue; else {proximity = i * 25u; break;}
 156:proximity.c   ****         }
 157:proximity.c   ****         if (fabs(mass[5] - mass[4]) > diff) proximity = 5 * 25u; else  i = 11;
 158:proximity.c   ****         if (i == 11) proximity = (uint8_t)PROX_MAX_VALUE;
 159:proximity.c   ****         }  
 160:proximity.c   ****         
 161:proximity.c   ****         */
 162:proximity.c   ****         
 163:proximity.c   ****        
 164:proximity.c   ****         for (int i = 0; i <=9; i++)
 138              		.loc 1 164 0
 139 003e 0023     		movs	r3, #0
 140 0040 46E0     		b	.L9
 141              	.LVL7:
 142              	.L22:
 165:proximity.c   ****         {
 166:proximity.c   ****          if (i == 9 && mass[i] == 1)
 143              		.loc 1 166 0
 144 0042 092B     		cmp	r3, #9
 145 0044 09D1     		bne	.L10
 146              		.loc 1 166 0 is_stmt 0 discriminator 1
 147 0046 0AAA     		add	r2, sp, #40
 148 0048 02EB8302 		add	r2, r2, r3, lsl #2
 149 004c 52F8282C 		ldr	r2, [r2, #-40]
 150 0050 012A     		cmp	r2, #1
 151 0052 02D1     		bne	.L10
 167:proximity.c   ****           proximity = (uint8_t)PROX_MAX_VALUE; 
 152              		.loc 1 167 0 is_stmt 1
 153 0054 FF21     		movs	r1, #255
 154 0056 2A4A     		ldr	r2, .L26+4
 155 0058 1170     		strb	r1, [r2]
 156              	.L10:
 168:proximity.c   ****          if (mass[i] == 1)
 157              		.loc 1 168 0
 158 005a 0AAA     		add	r2, sp, #40
 159 005c 02EB8302 		add	r2, r2, r3, lsl #2
 160 0060 52F8282C 		ldr	r2, [r2, #-40]
 161 0064 012A     		cmp	r2, #1
 162 0066 01D1     		bne	.L11
 164:proximity.c   ****         {
 163              		.loc 1 164 0
 164 0068 0133     		adds	r3, r3, #1
ARM GAS  C:\Users\Coal\AppData\Local\Temp\ccdGM3NX.s 			page 7


 165              	.LVL8:
 166 006a 31E0     		b	.L9
 167              	.L11:
 169:proximity.c   ****         continue;
 170:proximity.c   ****         else
 171:proximity.c   ****         {
 172:proximity.c   ****            if (i == 0)
 168              		.loc 1 172 0
 169 006c 13B9     		cbnz	r3, .L12
 173:proximity.c   ****            proximity = 0u; 
 170              		.loc 1 173 0
 171 006e 0021     		movs	r1, #0
 172 0070 234A     		ldr	r2, .L26+4
 173 0072 1170     		strb	r1, [r2]
 174              	.L12:
 174:proximity.c   ****            if ( i == 1)
 175              		.loc 1 174 0
 176 0074 012B     		cmp	r3, #1
 177 0076 02D1     		bne	.L13
 175:proximity.c   ****            proximity = 26u; 
 178              		.loc 1 175 0
 179 0078 1A21     		movs	r1, #26
 180 007a 214A     		ldr	r2, .L26+4
 181 007c 1170     		strb	r1, [r2]
 182              	.L13:
 176:proximity.c   ****            if (i== 2)
 183              		.loc 1 176 0
 184 007e 022B     		cmp	r3, #2
 185 0080 02D1     		bne	.L14
 177:proximity.c   ****            proximity = 51u; 
 186              		.loc 1 177 0
 187 0082 3321     		movs	r1, #51
 188 0084 1E4A     		ldr	r2, .L26+4
 189 0086 1170     		strb	r1, [r2]
 190              	.L14:
 178:proximity.c   ****            if (i == 3)
 191              		.loc 1 178 0
 192 0088 032B     		cmp	r3, #3
 193 008a 02D1     		bne	.L15
 179:proximity.c   ****            proximity = 77u; 
 194              		.loc 1 179 0
 195 008c 4D21     		movs	r1, #77
 196 008e 1C4A     		ldr	r2, .L26+4
 197 0090 1170     		strb	r1, [r2]
 198              	.L15:
 180:proximity.c   ****            if ( i == 4)
 199              		.loc 1 180 0
 200 0092 042B     		cmp	r3, #4
 201 0094 02D1     		bne	.L16
 181:proximity.c   ****            proximity = 102u; 
 202              		.loc 1 181 0
 203 0096 6621     		movs	r1, #102
 204 0098 194A     		ldr	r2, .L26+4
 205 009a 1170     		strb	r1, [r2]
 206              	.L16:
 182:proximity.c   ****            if (i == 5)
 207              		.loc 1 182 0
ARM GAS  C:\Users\Coal\AppData\Local\Temp\ccdGM3NX.s 			page 8


 208 009c 052B     		cmp	r3, #5
 209 009e 02D1     		bne	.L17
 183:proximity.c   ****            proximity = 128u; 
 210              		.loc 1 183 0
 211 00a0 8021     		movs	r1, #128
 212 00a2 174A     		ldr	r2, .L26+4
 213 00a4 1170     		strb	r1, [r2]
 214              	.L17:
 184:proximity.c   ****            if ( i == 6)
 215              		.loc 1 184 0
 216 00a6 062B     		cmp	r3, #6
 217 00a8 02D1     		bne	.L18
 185:proximity.c   ****            proximity = 153u; 
 218              		.loc 1 185 0
 219 00aa 9921     		movs	r1, #153
 220 00ac 144A     		ldr	r2, .L26+4
 221 00ae 1170     		strb	r1, [r2]
 222              	.L18:
 186:proximity.c   ****            if (i == 7)
 223              		.loc 1 186 0
 224 00b0 072B     		cmp	r3, #7
 225 00b2 02D1     		bne	.L19
 187:proximity.c   ****            proximity = 179u;
 226              		.loc 1 187 0
 227 00b4 B321     		movs	r1, #179
 228 00b6 124A     		ldr	r2, .L26+4
 229 00b8 1170     		strb	r1, [r2]
 230              	.L19:
 188:proximity.c   ****            if ( i == 8)
 231              		.loc 1 188 0
 232 00ba 082B     		cmp	r3, #8
 233 00bc 02D1     		bne	.L20
 189:proximity.c   ****            proximity = 204u; 
 234              		.loc 1 189 0
 235 00be CC21     		movs	r1, #204
 236 00c0 0F4A     		ldr	r2, .L26+4
 237 00c2 1170     		strb	r1, [r2]
 238              	.L20:
 190:proximity.c   ****            if ( i == 9)
 239              		.loc 1 190 0
 240 00c4 092B     		cmp	r3, #9
 241 00c6 05D1     		bne	.L21
 191:proximity.c   ****            proximity = 230u; 
 242              		.loc 1 191 0
 243 00c8 E622     		movs	r2, #230
 244 00ca 0D4B     		ldr	r3, .L26+4
 245              	.LVL9:
 246 00cc 1A70     		strb	r2, [r3]
 247 00ce 01E0     		b	.L21
 248              	.L9:
 249              	.LVL10:
 164:proximity.c   ****         {
 250              		.loc 1 164 0 discriminator 1
 251 00d0 092B     		cmp	r3, #9
 252 00d2 B6DD     		ble	.L22
 253              	.LVL11:
 254              	.L21:
ARM GAS  C:\Users\Coal\AppData\Local\Temp\ccdGM3NX.s 			page 9


 255              	.LBE4:
 192:proximity.c   ****         break;
 193:proximity.c   ****             //proximity = i*25u; break;
 194:proximity.c   ****         }
 195:proximity.c   ****         }
 196:proximity.c   ****         
 197:proximity.c   ****         //proximity = 25u ;
 198:proximity.c   ****         
 199:proximity.c   ****         //proximity = (uint8_t)PROX_MAX_VALUE;
 200:proximity.c   ****         //if (CapSense_BUTTON0_SNS0_DIFF_VALUE <= PROX_MAX_VALUE)
 201:proximity.c   ****         //    proximity = CapSense_BUTTON0_SNS0_DIFF_VALUE * 
 202:proximity.c   ****         /* Start the next CapSense scan */
 203:proximity.c   ****         //proximity = 64u;
 204:proximity.c   ****         CapSense_ScanAllWidgets();
 256              		.loc 1 204 0 discriminator 1
 257 00d4 FFF7FEFF 		bl	CapSense_ScanAllWidgets
 258              	.LVL12:
 259              	.L8:
 260              	.LBE3:
 205:proximity.c   ****         
 206:proximity.c   ****     }
 207:proximity.c   ****                       
 208:proximity.c   ****     /* Check if the proximity data has changed */
 209:proximity.c   ****     if (proximity != currentProximityData.proximityData)
 261              		.loc 1 209 0
 262 00d8 094B     		ldr	r3, .L26+4
 263 00da 5A79     		ldrb	r2, [r3, #5]	@ zero_extendqisi2
 264 00dc 1B78     		ldrb	r3, [r3]	@ zero_extendqisi2
 265 00de 9A42     		cmp	r2, r3
 266 00e0 04D0     		beq	.L23
 210:proximity.c   ****     {
 211:proximity.c   ****         /* Proximity proximity position */
 212:proximity.c   ****         currentProximityData.proximityData = proximity;
 267              		.loc 1 212 0
 268 00e2 074A     		ldr	r2, .L26+4
 269 00e4 5371     		strb	r3, [r2, #5]
 213:proximity.c   ****         /* Proximity data updated */
 214:proximity.c   ****         currentProximityData.proximityDataUpdated = true;
 270              		.loc 1 214 0
 271 00e6 0123     		movs	r3, #1
 272 00e8 1371     		strb	r3, [r2, #4]
 273 00ea 02E0     		b	.L24
 274              	.L23:
 215:proximity.c   ****     }
 216:proximity.c   ****     else
 217:proximity.c   ****     {  
 218:proximity.c   ****        /* Proximity data not updated */
 219:proximity.c   ****        currentProximityData.proximityDataUpdated = false; 
 275              		.loc 1 219 0
 276 00ec 0022     		movs	r2, #0
 277 00ee 044B     		ldr	r3, .L26+4
 278 00f0 1A71     		strb	r2, [r3, #4]
 279              	.L24:
 220:proximity.c   ****     }
 221:proximity.c   ****         
 222:proximity.c   ****     /* return the proximity information */
 223:proximity.c   ****     return &currentProximityData;
ARM GAS  C:\Users\Coal\AppData\Local\Temp\ccdGM3NX.s 			page 10


 224:proximity.c   **** }
 280              		.loc 1 224 0
 281 00f2 0448     		ldr	r0, .L26+8
 282 00f4 0BB0     		add	sp, sp, #44
 283              		.cfi_def_cfa_offset 4
 284              		@ sp needed
 285 00f6 5DF804FB 		ldr	pc, [sp], #4
 286              	.L27:
 287 00fa 00BF     		.align	2
 288              	.L26:
 289 00fc 00000000 		.word	CapSense_dsRam
 290 0100 00000000 		.word	.LANCHOR0
 291 0104 04000000 		.word	.LANCHOR0+4
 292              		.cfi_endproc
 293              	.LFE621:
 294              		.size	GetProximityData, .-GetProximityData
 295              		.section	.text.IsCapSenseReadyForLowPowerMode,"ax",%progbits
 296              		.align	2
 297              		.global	IsCapSenseReadyForLowPowerMode
 298              		.thumb
 299              		.thumb_func
 300              		.type	IsCapSenseReadyForLowPowerMode, %function
 301              	IsCapSenseReadyForLowPowerMode:
 302              	.LFB622:
 225:proximity.c   **** 
 226:proximity.c   **** 
 227:proximity.c   **** 
 228:proximity.c   **** /*******************************************************************************
 229:proximity.c   **** * Function Name: bool IsCapSenseReadyForLowPowerMode(void)
 230:proximity.c   **** ********************************************************************************
 231:proximity.c   **** *
 232:proximity.c   **** * Summary:
 233:proximity.c   **** *  Function to check if CapSense is ready to enter low power mode
 234:proximity.c   **** *
 235:proximity.c   **** * Parameters:
 236:proximity.c   **** *  None
 237:proximity.c   **** *
 238:proximity.c   **** * Return:
 239:proximity.c   **** *  bool     : true if ready to enter low power mode, false otherwise
 240:proximity.c   **** *
 241:proximity.c   **** * Side Effects:
 242:proximity.c   **** *  None
 243:proximity.c   **** *
 244:proximity.c   **** *******************************************************************************/
 245:proximity.c   **** bool  IsCapSenseReadyForLowPowerMode(void)
 246:proximity.c   **** {
 303              		.loc 1 246 0
 304              		.cfi_startproc
 305              		@ args = 0, pretend = 0, frame = 0
 306              		@ frame_needed = 0, uses_anonymous_args = 0
 307 0000 08B5     		push	{r3, lr}
 308              		.cfi_def_cfa_offset 8
 309              		.cfi_offset 3, -8
 310              		.cfi_offset 14, -4
 247:proximity.c   ****     /* Variable that stores the return flag */
 248:proximity.c   ****     bool lowPowerModeReady;
 249:proximity.c   ****     
ARM GAS  C:\Users\Coal\AppData\Local\Temp\ccdGM3NX.s 			page 11


 250:proximity.c   ****     /* Don't enter low power mode if CapSense is busy with a scan */
 251:proximity.c   ****     if(CapSense_IsBusy() != CapSense_NOT_BUSY)
 311              		.loc 1 251 0
 312 0002 FFF7FEFF 		bl	CapSense_IsBusy
 313              	.LVL13:
 314 0006 08B1     		cbz	r0, .L30
 252:proximity.c   ****     {
 253:proximity.c   ****         lowPowerModeReady=false;
 315              		.loc 1 253 0
 316 0008 0020     		movs	r0, #0
 317 000a 08BD     		pop	{r3, pc}
 318              	.L30:
 254:proximity.c   ****     }
 255:proximity.c   ****     else
 256:proximity.c   ****     {
 257:proximity.c   ****         lowPowerModeReady=true;
 319              		.loc 1 257 0
 320 000c 0120     		movs	r0, #1
 321              	.LVL14:
 258:proximity.c   ****     }
 259:proximity.c   ****     
 260:proximity.c   ****     /* Return  the low power mode entry readiness */
 261:proximity.c   ****     return lowPowerModeReady;
 262:proximity.c   **** }
 322              		.loc 1 262 0
 323 000e 08BD     		pop	{r3, pc}
 324              		.cfi_endproc
 325              	.LFE622:
 326              		.size	IsCapSenseReadyForLowPowerMode, .-IsCapSenseReadyForLowPowerMode
 327              		.section	.text.InitCapSense,"ax",%progbits
 328              		.align	2
 329              		.global	InitCapSense
 330              		.thumb
 331              		.thumb_func
 332              		.type	InitCapSense, %function
 333              	InitCapSense:
 334              	.LFB623:
 263:proximity.c   **** 
 264:proximity.c   **** /*******************************************************************************
 265:proximity.c   **** * Function Name: void InitCapSense(void)
 266:proximity.c   **** ********************************************************************************
 267:proximity.c   **** * Summary:
 268:proximity.c   **** *  Initializes CapSense proximity sensing
 269:proximity.c   **** *
 270:proximity.c   **** * Parameters:
 271:proximity.c   **** *  void
 272:proximity.c   **** *
 273:proximity.c   **** * Return:
 274:proximity.c   **** *  void
 275:proximity.c   **** *
 276:proximity.c   **** *******************************************************************************/
 277:proximity.c   **** void InitCapSense(void)
 278:proximity.c   **** {
 335              		.loc 1 278 0
 336              		.cfi_startproc
 337              		@ args = 0, pretend = 0, frame = 0
 338              		@ frame_needed = 0, uses_anonymous_args = 0
ARM GAS  C:\Users\Coal\AppData\Local\Temp\ccdGM3NX.s 			page 12


 339 0000 08B5     		push	{r3, lr}
 340              		.cfi_def_cfa_offset 8
 341              		.cfi_offset 3, -8
 342              		.cfi_offset 14, -4
 279:proximity.c   ****     /* Start the CapSense component and initialize the baselines */
 280:proximity.c   ****     CapSense_Start();
 343              		.loc 1 280 0
 344 0002 FFF7FEFF 		bl	CapSense_Start
 345              	.LVL15:
 346 0006 08BD     		pop	{r3, pc}
 347              		.cfi_endproc
 348              	.LFE623:
 349              		.size	InitCapSense, .-InitCapSense
 350              		.comm	masszero,80,8
 351              		.bss
 352              		.align	2
 353              		.set	.LANCHOR0,. + 0
 354              		.type	proximity.19053, %object
 355              		.size	proximity.19053, 1
 356              	proximity.19053:
 357 0000 00       		.space	1
 358 0001 000000   		.space	3
 359              		.type	currentProximityData.19052, %object
 360              		.size	currentProximityData.19052, 2
 361              	currentProximityData.19052:
 362 0004 0000     		.space	2
 363              		.text
 364              	.Letext0:
 365              		.file 2 "c:\\program files (x86)\\cypress\\psoc creator\\4.2\\psoc creator\\import\\gnu\\arm\\5.4.
 366              		.file 3 "c:\\program files (x86)\\cypress\\psoc creator\\4.2\\psoc creator\\import\\gnu\\arm\\5.4.
 367              		.file 4 "Generated_Source\\PSoC6\\pdl\\drivers/peripheral/syslib/cy_syslib.h"
 368              		.file 5 "Generated_Source\\PSoC6\\pdl\\drivers/peripheral/tcpwm/cy_tcpwm_counter.h"
 369              		.file 6 "Generated_Source\\PSoC6\\pdl\\drivers/peripheral/scb/cy_scb_ezi2c.h"
 370              		.file 7 "Generated_Source\\PSoC6\\pdl\\drivers/peripheral/scb/cy_scb_spi.h"
 371              		.file 8 "Generated_Source\\PSoC6\\pdl\\middleware/ble/cy_ble_stack.h"
 372              		.file 9 "Generated_Source\\PSoC6\\pdl\\middleware/ble/cy_ble_stack_host_main.h"
 373              		.file 10 "Generated_Source\\PSoC6\\pdl\\middleware/ble/cy_ble_gap.h"
 374              		.file 11 "Generated_Source\\PSoC6/CapSense_Configuration.h"
 375              		.file 12 "Generated_Source\\PSoC6/CapSense_Structure.h"
 376              		.file 13 "proximity.h"
 377              		.file 14 "Generated_Source\\PSoC6\\pdl\\cmsis/include/core_cm4.h"
 378              		.file 15 "Generated_Source\\PSoC6/CY_EINK_SPIM.h"
 379              		.file 16 "Generated_Source\\PSoC6/CY_EINK_Timer.h"
 380              		.file 17 "Generated_Source\\PSoC6/EZI2C.h"
 381              		.file 18 "Generated_Source\\PSoC6/CapSense_Control.h"
 382              		.file 19 "Generated_Source\\PSoC6/CapSense_Sensing.h"