ARM GAS  C:\Users\Coal\AppData\Local\Temp\cck9DrYz.s 			page 1


   1              		.syntax unified
   2              		.cpu cortex-m0plus
   3              		.fpu softvfp
   4              		.eabi_attribute 20, 1
   5              		.eabi_attribute 21, 1
   6              		.eabi_attribute 23, 3
   7              		.eabi_attribute 24, 1
   8              		.eabi_attribute 25, 1
   9              		.eabi_attribute 26, 1
  10              		.eabi_attribute 30, 1
  11              		.eabi_attribute 34, 0
  12              		.eabi_attribute 18, 4
  13              		.thumb
  14              		.syntax unified
  15              		.file	"CapSense_Control.c"
  16              		.text
  17              	.Ltext0:
  18              		.cfi_sections	.debug_frame
  19              		.section	.text.CapSense_SwitchPowerModeCallback,"ax",%progbits
  20              		.align	2
  21              		.code	16
  22              		.thumb_func
  23              		.type	CapSense_SwitchPowerModeCallback, %function
  24              	CapSense_SwitchPowerModeCallback:
  25              	.LFB179:
  26              		.file 1 "Generated_Source\\PSoC6\\CapSense_Control.c"
   1:Generated_Source\PSoC6/CapSense_Control.c **** /***************************************************************************//**
   2:Generated_Source\PSoC6/CapSense_Control.c **** * \file CapSense_Control.c
   3:Generated_Source\PSoC6/CapSense_Control.c **** * \version 2.0
   4:Generated_Source\PSoC6/CapSense_Control.c **** *
   5:Generated_Source\PSoC6/CapSense_Control.c **** * \brief
   6:Generated_Source\PSoC6/CapSense_Control.c **** *   This file provides the source code to the Control module API of the Component.
   7:Generated_Source\PSoC6/CapSense_Control.c **** *
   8:Generated_Source\PSoC6/CapSense_Control.c **** * \see CapSense v2.0 Datasheet
   9:Generated_Source\PSoC6/CapSense_Control.c **** *
  10:Generated_Source\PSoC6/CapSense_Control.c **** *//*****************************************************************************
  11:Generated_Source\PSoC6/CapSense_Control.c **** * Copyright (2016-2017), Cypress Semiconductor Corporation.
  12:Generated_Source\PSoC6/CapSense_Control.c **** ********************************************************************************
  13:Generated_Source\PSoC6/CapSense_Control.c **** * This software is owned by Cypress Semiconductor Corporation (Cypress) and is
  14:Generated_Source\PSoC6/CapSense_Control.c **** * protected by and subject to worldwide patent protection (United States and
  15:Generated_Source\PSoC6/CapSense_Control.c **** * foreign), United States copyright laws and international treaty provisions.
  16:Generated_Source\PSoC6/CapSense_Control.c **** * Cypress hereby grants to licensee a personal, non-exclusive, non-transferable
  17:Generated_Source\PSoC6/CapSense_Control.c **** * license to copy, use, modify, create derivative works of, and compile the
  18:Generated_Source\PSoC6/CapSense_Control.c **** * Cypress Source Code and derivative works for the sole purpose of creating
  19:Generated_Source\PSoC6/CapSense_Control.c **** * custom software in support of licensee product to be used only in conjunction
  20:Generated_Source\PSoC6/CapSense_Control.c **** * with a Cypress integrated circuit as specified in the applicable agreement.
  21:Generated_Source\PSoC6/CapSense_Control.c **** * Any reproduction, modification, translation, compilation, or representation of
  22:Generated_Source\PSoC6/CapSense_Control.c **** * this software except as specified above is prohibited without the express
  23:Generated_Source\PSoC6/CapSense_Control.c **** * written permission of Cypress.
  24:Generated_Source\PSoC6/CapSense_Control.c **** *
  25:Generated_Source\PSoC6/CapSense_Control.c **** * Disclaimer: CYPRESS MAKES NO WARRANTY OF ANY KIND, EXPRESS OR IMPLIED, WITH
  26:Generated_Source\PSoC6/CapSense_Control.c **** * REGARD TO THIS MATERIAL, INCLUDING, BUT NOT LIMITED TO, THE IMPLIED
  27:Generated_Source\PSoC6/CapSense_Control.c **** * WARRANTIES OF MERCHANTABILITY AND FITNESS FOR A PARTICULAR PURPOSE.
  28:Generated_Source\PSoC6/CapSense_Control.c **** * Cypress reserves the right to make changes without further notice to the
  29:Generated_Source\PSoC6/CapSense_Control.c **** * materials described herein. Cypress does not assume any liability arising out
  30:Generated_Source\PSoC6/CapSense_Control.c **** * of the application or use of any product or circuit described herein. Cypress
  31:Generated_Source\PSoC6/CapSense_Control.c **** * does not authorize its products for use as critical components in life-support
ARM GAS  C:\Users\Coal\AppData\Local\Temp\cck9DrYz.s 			page 2


  32:Generated_Source\PSoC6/CapSense_Control.c **** * systems where a malfunction or failure may reasonably be expected to result in
  33:Generated_Source\PSoC6/CapSense_Control.c **** * significant injury to the user. The inclusion of Cypress' product in a life-
  34:Generated_Source\PSoC6/CapSense_Control.c **** * support systems application implies that the manufacturer assumes all risk of
  35:Generated_Source\PSoC6/CapSense_Control.c **** * such use and in doing so indemnifies Cypress against all charges. Use may be
  36:Generated_Source\PSoC6/CapSense_Control.c **** * limited by and subject to the applicable Cypress software license agreement.
  37:Generated_Source\PSoC6/CapSense_Control.c **** *******************************************************************************/
  38:Generated_Source\PSoC6/CapSense_Control.c **** 
  39:Generated_Source\PSoC6/CapSense_Control.c **** #include <stddef.h>
  40:Generated_Source\PSoC6/CapSense_Control.c **** #include "syslib/cy_syslib.h"
  41:Generated_Source\PSoC6/CapSense_Control.c **** #include "syspm/cy_syspm.h"
  42:Generated_Source\PSoC6/CapSense_Control.c **** #include "cyfitter_sysint_cfg.h"
  43:Generated_Source\PSoC6/CapSense_Control.c **** #include "CapSense_Configuration.h"
  44:Generated_Source\PSoC6/CapSense_Control.c **** #include "CapSense_Structure.h"
  45:Generated_Source\PSoC6/CapSense_Control.c **** #include "CapSense_Control.h"
  46:Generated_Source\PSoC6/CapSense_Control.c **** #include "CapSense_Processing.h"
  47:Generated_Source\PSoC6/CapSense_Control.c **** #include "CapSense_Filter.h"
  48:Generated_Source\PSoC6/CapSense_Control.c **** #include "CapSense_Sensing.h"
  49:Generated_Source\PSoC6/CapSense_Control.c **** #include "CapSense_Tuner.h"
  50:Generated_Source\PSoC6/CapSense_Control.c **** 
  51:Generated_Source\PSoC6/CapSense_Control.c **** #if (CapSense_ENABLE == CapSense_SELF_TEST_EN)
  52:Generated_Source\PSoC6/CapSense_Control.c ****     #include "CapSense_SelfTest.h"
  53:Generated_Source\PSoC6/CapSense_Control.c **** #endif
  54:Generated_Source\PSoC6/CapSense_Control.c **** 
  55:Generated_Source\PSoC6/CapSense_Control.c **** #if (0u != CapSense_ADC_EN)
  56:Generated_Source\PSoC6/CapSense_Control.c ****     #include "CapSense_Adc.h"
  57:Generated_Source\PSoC6/CapSense_Control.c **** #endif /* (0u != CapSense_ADC_EN) */
  58:Generated_Source\PSoC6/CapSense_Control.c **** 
  59:Generated_Source\PSoC6/CapSense_Control.c **** #if ((CapSense_ENABLE == CapSense_GES_GLOBAL_EN) ||\
  60:Generated_Source\PSoC6/CapSense_Control.c ****      (CapSense_ENABLE == CapSense_BALLISTIC_MULTIPLIER_EN))
  61:Generated_Source\PSoC6/CapSense_Control.c ****     #include "CapSense_Gesture.h"
  62:Generated_Source\PSoC6/CapSense_Control.c **** #endif /* (CapSense_ENABLE == CapSense_GES_GLOBAL_EN) */
  63:Generated_Source\PSoC6/CapSense_Control.c **** 
  64:Generated_Source\PSoC6/CapSense_Control.c **** /**************************************************************************************************
  65:Generated_Source\PSoC6/CapSense_Control.c **** * Local definition
  66:Generated_Source\PSoC6/CapSense_Control.c **** ***************************************************************************************************
  67:Generated_Source\PSoC6/CapSense_Control.c **** #define CapSense_INIT_DONE   (1u)
  68:Generated_Source\PSoC6/CapSense_Control.c **** #define CapSense_INIT_NEEDED (0u)
  69:Generated_Source\PSoC6/CapSense_Control.c **** 
  70:Generated_Source\PSoC6/CapSense_Control.c **** /**************************************************************************************************
  71:Generated_Source\PSoC6/CapSense_Control.c **** * Local variables
  72:Generated_Source\PSoC6/CapSense_Control.c **** ***************************************************************************************************
  73:Generated_Source\PSoC6/CapSense_Control.c **** static uint8 CapSense_InitVar = CapSense_INIT_NEEDED;
  74:Generated_Source\PSoC6/CapSense_Control.c **** 
  75:Generated_Source\PSoC6/CapSense_Control.c **** /**************************************************************************************************
  76:Generated_Source\PSoC6/CapSense_Control.c **** * Local function
  77:Generated_Source\PSoC6/CapSense_Control.c **** ***************************************************************************************************
  78:Generated_Source\PSoC6/CapSense_Control.c **** static cy_en_syspm_status_t CapSense_SwitchPowerModeCallback(cy_stc_syspm_callback_params_t *callba
  79:Generated_Source\PSoC6/CapSense_Control.c **** 
  80:Generated_Source\PSoC6/CapSense_Control.c **** /*******************************************************************************
  81:Generated_Source\PSoC6/CapSense_Control.c **** * Function Name: CapSense_Start
  82:Generated_Source\PSoC6/CapSense_Control.c **** ****************************************************************************//**
  83:Generated_Source\PSoC6/CapSense_Control.c **** *
  84:Generated_Source\PSoC6/CapSense_Control.c **** * \brief
  85:Generated_Source\PSoC6/CapSense_Control.c **** *  Initializes the Component hardware and firmware modules. This function is
  86:Generated_Source\PSoC6/CapSense_Control.c **** *  called by the application program prior to calling any other function of the
  87:Generated_Source\PSoC6/CapSense_Control.c **** *  Component.
  88:Generated_Source\PSoC6/CapSense_Control.c **** *
ARM GAS  C:\Users\Coal\AppData\Local\Temp\cck9DrYz.s 			page 3


  89:Generated_Source\PSoC6/CapSense_Control.c **** * \details
  90:Generated_Source\PSoC6/CapSense_Control.c **** *  This function initializes the Component hardware and firmware modules and
  91:Generated_Source\PSoC6/CapSense_Control.c **** *  is called by the application program prior to calling any other API
  92:Generated_Source\PSoC6/CapSense_Control.c **** *  of the Component. When this function is called, the following tasks are
  93:Generated_Source\PSoC6/CapSense_Control.c **** *  executed as part of the initialization process:
  94:Generated_Source\PSoC6/CapSense_Control.c **** *    1. Initialize the registers of the \ref group_structures variable
  95:Generated_Source\PSoC6/CapSense_Control.c **** *       CapSense_dsRam based on the user selection in the Component
  96:Generated_Source\PSoC6/CapSense_Control.c **** *       configuration wizard.
  97:Generated_Source\PSoC6/CapSense_Control.c **** *    2. Configure the hardware to perform capacitive sensing.
  98:Generated_Source\PSoC6/CapSense_Control.c **** *    3. If SmartSense Auto-tuning is selected for the CSD Tuning mode in the
  99:Generated_Source\PSoC6/CapSense_Control.c **** *       Basic tab, the auto-tuning algorithm is executed to set the optimal
 100:Generated_Source\PSoC6/CapSense_Control.c **** *       values for the hardware parameters of the widgets/sensors.
 101:Generated_Source\PSoC6/CapSense_Control.c **** *    4. Calibrate the sensors and find the optimal values for IDACs of each
 102:Generated_Source\PSoC6/CapSense_Control.c **** *       widget / sensor, if the Enable IDAC auto-calibration is enabled in the
 103:Generated_Source\PSoC6/CapSense_Control.c **** *       CSD Setting or CSX Setting tabs.
 104:Generated_Source\PSoC6/CapSense_Control.c **** *    5. Perform scanning for all the sensors and initialize the baseline history.
 105:Generated_Source\PSoC6/CapSense_Control.c **** *    6. If the firmware filters are enabled in the Advanced General tab, the
 106:Generated_Source\PSoC6/CapSense_Control.c **** *       filter histories are also initialized.
 107:Generated_Source\PSoC6/CapSense_Control.c **** 
 108:Generated_Source\PSoC6/CapSense_Control.c **** *  Any next call of this API repeats an initialization process except for
 109:Generated_Source\PSoC6/CapSense_Control.c **** *  data structure initialization. Therefore, it is possible to change the
 110:Generated_Source\PSoC6/CapSense_Control.c **** *  Component configuration from the application program by writing registers to the
 111:Generated_Source\PSoC6/CapSense_Control.c **** *  data structure and calling this function again. This is also
 112:Generated_Source\PSoC6/CapSense_Control.c **** *  done inside the CapSense_RunTuner() function when a restart command
 113:Generated_Source\PSoC6/CapSense_Control.c **** *  is received.
 114:Generated_Source\PSoC6/CapSense_Control.c **** *
 115:Generated_Source\PSoC6/CapSense_Control.c **** *  When the Component operation is stopped by the CapSense_Stop()
 116:Generated_Source\PSoC6/CapSense_Control.c **** *  function, the CapSense_Start() function repeats an initialization
 117:Generated_Source\PSoC6/CapSense_Control.c **** *  process including data structure initialization.
 118:Generated_Source\PSoC6/CapSense_Control.c **** *
 119:Generated_Source\PSoC6/CapSense_Control.c **** * \return
 120:Generated_Source\PSoC6/CapSense_Control.c **** *  Returns the status of the initialization process. If CY_RET_SUCCESS is not
 121:Generated_Source\PSoC6/CapSense_Control.c **** *  received, some of the initialization fails and the Component may not operate
 122:Generated_Source\PSoC6/CapSense_Control.c **** *  as expected.
 123:Generated_Source\PSoC6/CapSense_Control.c **** *
 124:Generated_Source\PSoC6/CapSense_Control.c **** *******************************************************************************/
 125:Generated_Source\PSoC6/CapSense_Control.c **** cy_status CapSense_Start(void)
 126:Generated_Source\PSoC6/CapSense_Control.c **** {
 127:Generated_Source\PSoC6/CapSense_Control.c ****     cy_status result;
 128:Generated_Source\PSoC6/CapSense_Control.c **** 
 129:Generated_Source\PSoC6/CapSense_Control.c ****     /* Initialize CapSense modules */
 130:Generated_Source\PSoC6/CapSense_Control.c ****     result = CapSense_Initialize();
 131:Generated_Source\PSoC6/CapSense_Control.c **** 
 132:Generated_Source\PSoC6/CapSense_Control.c ****     #if (CapSense_CSD_AUTOTUNE != CapSense_CSD_SS_DIS)
 133:Generated_Source\PSoC6/CapSense_Control.c ****         if (CY_RET_SUCCESS == result)
 134:Generated_Source\PSoC6/CapSense_Control.c ****         {
 135:Generated_Source\PSoC6/CapSense_Control.c ****             result = CapSense_SsAutoTune();
 136:Generated_Source\PSoC6/CapSense_Control.c ****         }
 137:Generated_Source\PSoC6/CapSense_Control.c ****     #endif /* #if (CapSense_CSD_AUTOTUNE != CapSense_CSD_SS_DIS) */
 138:Generated_Source\PSoC6/CapSense_Control.c **** 
 139:Generated_Source\PSoC6/CapSense_Control.c ****     #if ((0u != CapSense_CSX_IDAC_AUTOCAL_EN) || \
 140:Generated_Source\PSoC6/CapSense_Control.c ****         ((CapSense_CSD_AUTOTUNE == CapSense_CSD_SS_DIS) && (0u != CapSense_CSD_IDAC_AUTOCAL_EN)))
 141:Generated_Source\PSoC6/CapSense_Control.c ****         if (CY_RET_SUCCESS == result)
 142:Generated_Source\PSoC6/CapSense_Control.c ****         {
 143:Generated_Source\PSoC6/CapSense_Control.c ****             result = CapSense_CalibrateAllWidgets();
 144:Generated_Source\PSoC6/CapSense_Control.c ****         }
 145:Generated_Source\PSoC6/CapSense_Control.c ****     #endif
ARM GAS  C:\Users\Coal\AppData\Local\Temp\cck9DrYz.s 			page 4


 146:Generated_Source\PSoC6/CapSense_Control.c **** 
 147:Generated_Source\PSoC6/CapSense_Control.c ****     if (CY_RET_SUCCESS == result)
 148:Generated_Source\PSoC6/CapSense_Control.c ****     {
 149:Generated_Source\PSoC6/CapSense_Control.c ****         result = CapSense_ScanAllWidgets();
 150:Generated_Source\PSoC6/CapSense_Control.c ****     }
 151:Generated_Source\PSoC6/CapSense_Control.c **** 
 152:Generated_Source\PSoC6/CapSense_Control.c ****     while(CapSense_NOT_BUSY != CapSense_IsBusy()){}
 153:Generated_Source\PSoC6/CapSense_Control.c **** 
 154:Generated_Source\PSoC6/CapSense_Control.c ****     CapSense_FtInitialize();
 155:Generated_Source\PSoC6/CapSense_Control.c ****     CapSense_InitializeAllBaselines();
 156:Generated_Source\PSoC6/CapSense_Control.c **** 
 157:Generated_Source\PSoC6/CapSense_Control.c ****     #if(CapSense_ENABLE == CapSense_GES_GLOBAL_EN)
 158:Generated_Source\PSoC6/CapSense_Control.c ****         if (CY_RET_SUCCESS == result)
 159:Generated_Source\PSoC6/CapSense_Control.c ****         {
 160:Generated_Source\PSoC6/CapSense_Control.c ****             CapSense_InitializeGestures();
 161:Generated_Source\PSoC6/CapSense_Control.c ****         }
 162:Generated_Source\PSoC6/CapSense_Control.c ****     #endif /* (CapSense_ENABLE == CapSense_GES_GLOBAL_EN) */
 163:Generated_Source\PSoC6/CapSense_Control.c **** 
 164:Generated_Source\PSoC6/CapSense_Control.c ****     #if (0u != CapSense_BALLISTIC_MULTIPLIER_EN)
 165:Generated_Source\PSoC6/CapSense_Control.c ****         if (CY_RET_SUCCESS == result)
 166:Generated_Source\PSoC6/CapSense_Control.c ****         {
 167:Generated_Source\PSoC6/CapSense_Control.c ****             CapSense_InitializeBallisticMultiplier();
 168:Generated_Source\PSoC6/CapSense_Control.c ****         }
 169:Generated_Source\PSoC6/CapSense_Control.c ****     #endif /* (0u != CapSense_BALLISTIC_MULTIPLIER_EN) */
 170:Generated_Source\PSoC6/CapSense_Control.c **** 
 171:Generated_Source\PSoC6/CapSense_Control.c ****     #if (0u != CapSense_ADC_EN)
 172:Generated_Source\PSoC6/CapSense_Control.c ****         CapSense_AdcInitialize();
 173:Generated_Source\PSoC6/CapSense_Control.c ****     #endif /* (0u != CapSense_ADC_EN) */
 174:Generated_Source\PSoC6/CapSense_Control.c **** 
 175:Generated_Source\PSoC6/CapSense_Control.c ****     return result;
 176:Generated_Source\PSoC6/CapSense_Control.c **** }
 177:Generated_Source\PSoC6/CapSense_Control.c **** 
 178:Generated_Source\PSoC6/CapSense_Control.c **** /*******************************************************************************
 179:Generated_Source\PSoC6/CapSense_Control.c **** * Function Name: CapSense_Initialize
 180:Generated_Source\PSoC6/CapSense_Control.c **** ****************************************************************************//**
 181:Generated_Source\PSoC6/CapSense_Control.c **** *
 182:Generated_Source\PSoC6/CapSense_Control.c **** * \brief
 183:Generated_Source\PSoC6/CapSense_Control.c **** *  This function initializes the CapSense Component.
 184:Generated_Source\PSoC6/CapSense_Control.c **** *
 185:Generated_Source\PSoC6/CapSense_Control.c **** * \details
 186:Generated_Source\PSoC6/CapSense_Control.c **** *  This API initializes all sub-modules of the CapSense Component:
 187:Generated_Source\PSoC6/CapSense_Control.c **** *   - Data Structure - set the default Component parameters defined in the Customizer.
 188:Generated_Source\PSoC6/CapSense_Control.c **** *   - Data Processing - resets all widget statuses.
 189:Generated_Source\PSoC6/CapSense_Control.c **** *   - Tuner - resets tuning state.
 190:Generated_Source\PSoC6/CapSense_Control.c **** *   - Sensing - prepares CSD HW for operation.
 191:Generated_Source\PSoC6/CapSense_Control.c **** *
 192:Generated_Source\PSoC6/CapSense_Control.c **** *  Note that Data Structure module is initialized only once after the reset or
 193:Generated_Source\PSoC6/CapSense_Control.c **** *  CapSense_Stop() API is called. The repeated calls of Initialize API
 194:Generated_Source\PSoC6/CapSense_Control.c **** *  will not re-initialize Data Structure. This is done to preserve Component
 195:Generated_Source\PSoC6/CapSense_Control.c **** *  parameters that user may set in runtime.
 196:Generated_Source\PSoC6/CapSense_Control.c **** *
 197:Generated_Source\PSoC6/CapSense_Control.c **** * \return
 198:Generated_Source\PSoC6/CapSense_Control.c **** *  Return CY_RET_SUCCESS if the initialization was successful.
 199:Generated_Source\PSoC6/CapSense_Control.c **** *
 200:Generated_Source\PSoC6/CapSense_Control.c **** *******************************************************************************/
 201:Generated_Source\PSoC6/CapSense_Control.c **** cy_status CapSense_Initialize(void)
 202:Generated_Source\PSoC6/CapSense_Control.c **** {
ARM GAS  C:\Users\Coal\AppData\Local\Temp\cck9DrYz.s 			page 5


 203:Generated_Source\PSoC6/CapSense_Control.c ****     cy_status result;
 204:Generated_Source\PSoC6/CapSense_Control.c **** 
 205:Generated_Source\PSoC6/CapSense_Control.c ****     /* The Data Structure and Tuner are initialized only once */
 206:Generated_Source\PSoC6/CapSense_Control.c ****     if (CapSense_INIT_NEEDED == CapSense_InitVar)
 207:Generated_Source\PSoC6/CapSense_Control.c ****     {
 208:Generated_Source\PSoC6/CapSense_Control.c ****         CapSense_DsInitialize();
 209:Generated_Source\PSoC6/CapSense_Control.c ****         CapSense_TuInitialize();
 210:Generated_Source\PSoC6/CapSense_Control.c ****         CapSense_InitVar = CapSense_INIT_DONE;
 211:Generated_Source\PSoC6/CapSense_Control.c ****     }
 212:Generated_Source\PSoC6/CapSense_Control.c **** 
 213:Generated_Source\PSoC6/CapSense_Control.c ****     CapSense_DpInitialize();
 214:Generated_Source\PSoC6/CapSense_Control.c **** 
 215:Generated_Source\PSoC6/CapSense_Control.c ****     result = CapSense_SsInitialize();
 216:Generated_Source\PSoC6/CapSense_Control.c **** 
 217:Generated_Source\PSoC6/CapSense_Control.c ****     return result;
 218:Generated_Source\PSoC6/CapSense_Control.c **** }
 219:Generated_Source\PSoC6/CapSense_Control.c **** 
 220:Generated_Source\PSoC6/CapSense_Control.c **** /*******************************************************************************
 221:Generated_Source\PSoC6/CapSense_Control.c **** * Function Name: CapSense_Stop
 222:Generated_Source\PSoC6/CapSense_Control.c **** ****************************************************************************//**
 223:Generated_Source\PSoC6/CapSense_Control.c **** *
 224:Generated_Source\PSoC6/CapSense_Control.c **** * \brief
 225:Generated_Source\PSoC6/CapSense_Control.c **** *  Stops the Component operation.
 226:Generated_Source\PSoC6/CapSense_Control.c **** *
 227:Generated_Source\PSoC6/CapSense_Control.c **** * \details
 228:Generated_Source\PSoC6/CapSense_Control.c **** *  This function stops the Component operation, no sensor scanning can be
 229:Generated_Source\PSoC6/CapSense_Control.c **** *  executed when the Component is stopped. Once stopped, the hardware block may
 230:Generated_Source\PSoC6/CapSense_Control.c **** *  be reconfigured by the application program for any other special usage. The
 231:Generated_Source\PSoC6/CapSense_Control.c **** *  Component operation can be resumed by calling the CapSense_Resume()
 232:Generated_Source\PSoC6/CapSense_Control.c **** *  function or the Component can be reset by calling the
 233:Generated_Source\PSoC6/CapSense_Control.c **** *  CapSense_Start() function.
 234:Generated_Source\PSoC6/CapSense_Control.c **** *
 235:Generated_Source\PSoC6/CapSense_Control.c **** *  This function is called when no scanning is in progress.
 236:Generated_Source\PSoC6/CapSense_Control.c **** *  I.e. CapSense_IsBusy() returns a non-busy status.
 237:Generated_Source\PSoC6/CapSense_Control.c **** *
 238:Generated_Source\PSoC6/CapSense_Control.c **** * \return
 239:Generated_Source\PSoC6/CapSense_Control.c **** *  Returns the status of the stop process. If CY_RET_SUCCESS is not received,
 240:Generated_Source\PSoC6/CapSense_Control.c **** *  the stop process fails and retries may be required.
 241:Generated_Source\PSoC6/CapSense_Control.c **** *
 242:Generated_Source\PSoC6/CapSense_Control.c **** *******************************************************************************/
 243:Generated_Source\PSoC6/CapSense_Control.c **** cy_status CapSense_Stop(void)
 244:Generated_Source\PSoC6/CapSense_Control.c **** {
 245:Generated_Source\PSoC6/CapSense_Control.c ****     cy_status result = CY_RET_SUCCESS;
 246:Generated_Source\PSoC6/CapSense_Control.c **** 
 247:Generated_Source\PSoC6/CapSense_Control.c ****     #if (CapSense_ENABLE == CapSense_ADC_EN)
 248:Generated_Source\PSoC6/CapSense_Control.c ****         /* Release CSD resources */
 249:Generated_Source\PSoC6/CapSense_Control.c ****         result = CapSense_SsReleaseResources();
 250:Generated_Source\PSoC6/CapSense_Control.c **** 
 251:Generated_Source\PSoC6/CapSense_Control.c ****         /* Release ADC resources */
 252:Generated_Source\PSoC6/CapSense_Control.c ****         CapSense_AdcStop();
 253:Generated_Source\PSoC6/CapSense_Control.c ****     #endif /* (CapSense_ENABLE == CapSense_ADC_EN) */
 254:Generated_Source\PSoC6/CapSense_Control.c **** 
 255:Generated_Source\PSoC6/CapSense_Control.c ****     CapSense_InitVar = CapSense_INIT_NEEDED;
 256:Generated_Source\PSoC6/CapSense_Control.c **** 
 257:Generated_Source\PSoC6/CapSense_Control.c ****     return result;
 258:Generated_Source\PSoC6/CapSense_Control.c **** }
 259:Generated_Source\PSoC6/CapSense_Control.c **** 
ARM GAS  C:\Users\Coal\AppData\Local\Temp\cck9DrYz.s 			page 6


 260:Generated_Source\PSoC6/CapSense_Control.c **** /*******************************************************************************
 261:Generated_Source\PSoC6/CapSense_Control.c **** * Function Name: CapSense_Resume
 262:Generated_Source\PSoC6/CapSense_Control.c **** ****************************************************************************//**
 263:Generated_Source\PSoC6/CapSense_Control.c **** *
 264:Generated_Source\PSoC6/CapSense_Control.c **** * \brief
 265:Generated_Source\PSoC6/CapSense_Control.c **** *  Resumes the Component operation if the CapSense_Stop() function was
 266:Generated_Source\PSoC6/CapSense_Control.c **** *  called previously.
 267:Generated_Source\PSoC6/CapSense_Control.c **** *
 268:Generated_Source\PSoC6/CapSense_Control.c **** * \details
 269:Generated_Source\PSoC6/CapSense_Control.c **** *  This function resumes the Component operation if the operation is stopped
 270:Generated_Source\PSoC6/CapSense_Control.c **** *  previously by the CapSense_Stop() function. The following tasks are
 271:Generated_Source\PSoC6/CapSense_Control.c **** *  executed as part of the operation resume process:
 272:Generated_Source\PSoC6/CapSense_Control.c **** *    1. Reset all the Widgets/Sensors statuses.
 273:Generated_Source\PSoC6/CapSense_Control.c **** *    2. Configure the hardware to perform capacitive sensing.
 274:Generated_Source\PSoC6/CapSense_Control.c **** *
 275:Generated_Source\PSoC6/CapSense_Control.c **** * \return
 276:Generated_Source\PSoC6/CapSense_Control.c **** *  Returns the status of the resume process. If CY_RET_SUCCESS is not received,
 277:Generated_Source\PSoC6/CapSense_Control.c **** *  the resume process fails and retries may be required.
 278:Generated_Source\PSoC6/CapSense_Control.c **** *
 279:Generated_Source\PSoC6/CapSense_Control.c **** *******************************************************************************/
 280:Generated_Source\PSoC6/CapSense_Control.c **** cy_status CapSense_Resume(void)
 281:Generated_Source\PSoC6/CapSense_Control.c **** {
 282:Generated_Source\PSoC6/CapSense_Control.c ****     cy_status result;
 283:Generated_Source\PSoC6/CapSense_Control.c **** 
 284:Generated_Source\PSoC6/CapSense_Control.c ****     /* The Tuner are initialized only once in order not to break communication */
 285:Generated_Source\PSoC6/CapSense_Control.c ****     if (CapSense_INIT_NEEDED == CapSense_InitVar)
 286:Generated_Source\PSoC6/CapSense_Control.c ****     {
 287:Generated_Source\PSoC6/CapSense_Control.c ****         CapSense_TuInitialize();
 288:Generated_Source\PSoC6/CapSense_Control.c ****         CapSense_InitVar = CapSense_INIT_DONE;
 289:Generated_Source\PSoC6/CapSense_Control.c ****     }
 290:Generated_Source\PSoC6/CapSense_Control.c ****     CapSense_DpInitialize();
 291:Generated_Source\PSoC6/CapSense_Control.c **** 
 292:Generated_Source\PSoC6/CapSense_Control.c ****     result = CapSense_SsInitialize();
 293:Generated_Source\PSoC6/CapSense_Control.c **** 
 294:Generated_Source\PSoC6/CapSense_Control.c ****     return result;
 295:Generated_Source\PSoC6/CapSense_Control.c **** }
 296:Generated_Source\PSoC6/CapSense_Control.c **** 
 297:Generated_Source\PSoC6/CapSense_Control.c **** /*******************************************************************************
 298:Generated_Source\PSoC6/CapSense_Control.c **** * Function Name: CapSense_ProcessAllWidgets
 299:Generated_Source\PSoC6/CapSense_Control.c **** ****************************************************************************//**
 300:Generated_Source\PSoC6/CapSense_Control.c **** *
 301:Generated_Source\PSoC6/CapSense_Control.c **** * \brief
 302:Generated_Source\PSoC6/CapSense_Control.c **** *  Performs full data processing of all enabled widgets.
 303:Generated_Source\PSoC6/CapSense_Control.c **** *
 304:Generated_Source\PSoC6/CapSense_Control.c **** * \details
 305:Generated_Source\PSoC6/CapSense_Control.c **** *  This function performs all data processes for all enabled widgets in the
 306:Generated_Source\PSoC6/CapSense_Control.c **** *  Component. The following tasks are executed as part of processing all the
 307:Generated_Source\PSoC6/CapSense_Control.c **** *  widgets:
 308:Generated_Source\PSoC6/CapSense_Control.c **** *    1. Apply raw count filters to the raw counts, if they are enabled in the
 309:Generated_Source\PSoC6/CapSense_Control.c **** *       customizer.
 310:Generated_Source\PSoC6/CapSense_Control.c **** *    2. Update the thresholds if the SmartSense Full Auto-Tuning is enabled in
 311:Generated_Source\PSoC6/CapSense_Control.c **** *       the customizer.
 312:Generated_Source\PSoC6/CapSense_Control.c **** *    3. Update the baselines and difference counts for all the sensors.
 313:Generated_Source\PSoC6/CapSense_Control.c **** *    4. Update the sensor and widget status (on/off), update the centroid for
 314:Generated_Source\PSoC6/CapSense_Control.c **** *       the sliders and the X/Y position for the touchpads.
 315:Generated_Source\PSoC6/CapSense_Control.c **** *
 316:Generated_Source\PSoC6/CapSense_Control.c **** *  This function is called by an application program only after all the enabled
ARM GAS  C:\Users\Coal\AppData\Local\Temp\cck9DrYz.s 			page 7


 317:Generated_Source\PSoC6/CapSense_Control.c **** *  widgets (and sensors) in the Component is scanned. Calling this function
 318:Generated_Source\PSoC6/CapSense_Control.c **** *  multiple times without sensor scanning causes unexpected behavior.
 319:Generated_Source\PSoC6/CapSense_Control.c **** *
 320:Generated_Source\PSoC6/CapSense_Control.c **** *  The disabled widgets are not processed by this function. To disable/enable
 321:Generated_Source\PSoC6/CapSense_Control.c **** *  a widget, set the appropriate values in the
 322:Generated_Source\PSoC6/CapSense_Control.c **** *  CapSense_WDGT_ENABLE<RegisterNumber>_PARAM_ID register using the
 323:Generated_Source\PSoC6/CapSense_Control.c **** *  CapSense_SetParam() function.
 324:Generated_Source\PSoC6/CapSense_Control.c **** *
 325:Generated_Source\PSoC6/CapSense_Control.c **** *  If the Ballistic multiplier filter is enabled the Timestamp must be
 326:Generated_Source\PSoC6/CapSense_Control.c **** *  updated before calling this function using the
 327:Generated_Source\PSoC6/CapSense_Control.c **** *  CapSense_IncrementGestureTimestamp() function.
 328:Generated_Source\PSoC6/CapSense_Control.c **** *
 329:Generated_Source\PSoC6/CapSense_Control.c **** *  If the Self-test library is enabled, this function executes the baseline duplication
 330:Generated_Source\PSoC6/CapSense_Control.c **** *  test. Refer to CapSense_CheckBaselineDuplication() for details.
 331:Generated_Source\PSoC6/CapSense_Control.c **** *
 332:Generated_Source\PSoC6/CapSense_Control.c **** * \return
 333:Generated_Source\PSoC6/CapSense_Control.c **** *  Returns the status of the processing operation. If CY_RET_SUCCESS is not received,
 334:Generated_Source\PSoC6/CapSense_Control.c **** *  the processing fails and retries may be required.
 335:Generated_Source\PSoC6/CapSense_Control.c **** *
 336:Generated_Source\PSoC6/CapSense_Control.c **** *******************************************************************************/
 337:Generated_Source\PSoC6/CapSense_Control.c **** cy_status CapSense_ProcessAllWidgets(void)
 338:Generated_Source\PSoC6/CapSense_Control.c **** {
 339:Generated_Source\PSoC6/CapSense_Control.c ****     uint32 wdgtId;
 340:Generated_Source\PSoC6/CapSense_Control.c ****     cy_status result = CY_RET_SUCCESS;
 341:Generated_Source\PSoC6/CapSense_Control.c ****     CapSense_FLASH_WD_STRUCT const *ptrFlashWdgt;
 342:Generated_Source\PSoC6/CapSense_Control.c **** 
 343:Generated_Source\PSoC6/CapSense_Control.c ****     ptrFlashWdgt = CapSense_dsFlash.wdgtArray;
 344:Generated_Source\PSoC6/CapSense_Control.c **** 
 345:Generated_Source\PSoC6/CapSense_Control.c ****     for (wdgtId = 0u; wdgtId < CapSense_TOTAL_WIDGETS; wdgtId++)
 346:Generated_Source\PSoC6/CapSense_Control.c ****     {
 347:Generated_Source\PSoC6/CapSense_Control.c ****         if (0uL != CapSense_GET_WIDGET_EN_STATUS(wdgtId))
 348:Generated_Source\PSoC6/CapSense_Control.c ****         {
 349:Generated_Source\PSoC6/CapSense_Control.c ****             switch(CapSense_GET_SENSE_METHOD(ptrFlashWdgt))
 350:Generated_Source\PSoC6/CapSense_Control.c ****             {
 351:Generated_Source\PSoC6/CapSense_Control.c ****             #if (0u != CapSense_TOTAL_CSD_WIDGETS)
 352:Generated_Source\PSoC6/CapSense_Control.c ****                 case CapSense_SENSE_METHOD_CSD_E:
 353:Generated_Source\PSoC6/CapSense_Control.c ****                     result = CapSense_DpProcessCsdWidgetRawCounts(ptrFlashWdgt);
 354:Generated_Source\PSoC6/CapSense_Control.c ****                     CapSense_DpProcessCsdWidgetStatus(wdgtId, ptrFlashWdgt);
 355:Generated_Source\PSoC6/CapSense_Control.c ****                     break;
 356:Generated_Source\PSoC6/CapSense_Control.c ****             #endif /* #if (0u != CapSense_TOTAL_CSD_WIDGETS) */
 357:Generated_Source\PSoC6/CapSense_Control.c **** 
 358:Generated_Source\PSoC6/CapSense_Control.c ****             #if (0u != CapSense_TOTAL_CSX_WIDGETS)
 359:Generated_Source\PSoC6/CapSense_Control.c ****                 case CapSense_SENSE_METHOD_CSX_E:
 360:Generated_Source\PSoC6/CapSense_Control.c ****                     result = CapSense_DpProcessCsxWidgetRawCounts(ptrFlashWdgt);
 361:Generated_Source\PSoC6/CapSense_Control.c ****                     CapSense_DpProcessCsxWidgetStatus(wdgtId, ptrFlashWdgt);
 362:Generated_Source\PSoC6/CapSense_Control.c ****                     break;
 363:Generated_Source\PSoC6/CapSense_Control.c ****             #endif /* #if (0u != CapSense_TOTAL_CSX_WIDGETS) */
 364:Generated_Source\PSoC6/CapSense_Control.c **** 
 365:Generated_Source\PSoC6/CapSense_Control.c ****             default:
 366:Generated_Source\PSoC6/CapSense_Control.c ****                 CY_ASSERT(0 != 0);
 367:Generated_Source\PSoC6/CapSense_Control.c ****                 break;
 368:Generated_Source\PSoC6/CapSense_Control.c ****             }
 369:Generated_Source\PSoC6/CapSense_Control.c **** 
 370:Generated_Source\PSoC6/CapSense_Control.c ****             #if (CapSense_ENABLE == CapSense_TST_BSLN_DUPLICATION_EN)
 371:Generated_Source\PSoC6/CapSense_Control.c ****                 if (CY_RET_SUCCESS != result)
 372:Generated_Source\PSoC6/CapSense_Control.c ****                 {
 373:Generated_Source\PSoC6/CapSense_Control.c ****                     CapSense_UpdateTestResultBaselineDuplication(wdgtId, result);
ARM GAS  C:\Users\Coal\AppData\Local\Temp\cck9DrYz.s 			page 8


 374:Generated_Source\PSoC6/CapSense_Control.c ****                     result = CY_RET_BAD_DATA;
 375:Generated_Source\PSoC6/CapSense_Control.c ****                 }
 376:Generated_Source\PSoC6/CapSense_Control.c ****             #endif /* (CapSense_ENABLE == CapSense_TST_BSLN_DUPLICATION_EN) */
 377:Generated_Source\PSoC6/CapSense_Control.c **** 
 378:Generated_Source\PSoC6/CapSense_Control.c ****         }
 379:Generated_Source\PSoC6/CapSense_Control.c ****         ptrFlashWdgt++;
 380:Generated_Source\PSoC6/CapSense_Control.c ****     }
 381:Generated_Source\PSoC6/CapSense_Control.c ****     return result;
 382:Generated_Source\PSoC6/CapSense_Control.c **** }
 383:Generated_Source\PSoC6/CapSense_Control.c **** 
 384:Generated_Source\PSoC6/CapSense_Control.c **** /*******************************************************************************
 385:Generated_Source\PSoC6/CapSense_Control.c **** * Function Name: CapSense_ProcessWidget
 386:Generated_Source\PSoC6/CapSense_Control.c **** ****************************************************************************//**
 387:Generated_Source\PSoC6/CapSense_Control.c **** *
 388:Generated_Source\PSoC6/CapSense_Control.c **** * \brief
 389:Generated_Source\PSoC6/CapSense_Control.c **** *  Performs full data processing of the specified widget if it is enabled.
 390:Generated_Source\PSoC6/CapSense_Control.c **** *
 391:Generated_Source\PSoC6/CapSense_Control.c **** * \details
 392:Generated_Source\PSoC6/CapSense_Control.c **** *  This function performs exactly the same tasks as
 393:Generated_Source\PSoC6/CapSense_Control.c **** *  CapSense_ProcessAllWidgets(), but only for a specified widget. This
 394:Generated_Source\PSoC6/CapSense_Control.c **** *  function can be used along with the CapSense_SetupWidget() and
 395:Generated_Source\PSoC6/CapSense_Control.c **** *  CapSense_Scan() functions to scan and process data for a specific
 396:Generated_Source\PSoC6/CapSense_Control.c **** *  widget. This function is called only after all the sensors in the
 397:Generated_Source\PSoC6/CapSense_Control.c **** *  widgets are scanned. A disabled widget is not processed by this function.
 398:Generated_Source\PSoC6/CapSense_Control.c **** *
 399:Generated_Source\PSoC6/CapSense_Control.c **** *  A pipeline scan method (i.e. during scanning of a widget perform processing
 400:Generated_Source\PSoC6/CapSense_Control.c **** *  of the previously scanned widget) can be implemented using this function and
 401:Generated_Source\PSoC6/CapSense_Control.c **** *  it may reduce the total execution time, increase the refresh rate and
 402:Generated_Source\PSoC6/CapSense_Control.c **** *  decrease the average power consumption.
 403:Generated_Source\PSoC6/CapSense_Control.c **** *
 404:Generated_Source\PSoC6/CapSense_Control.c **** *  If the Ballistic multiplier filter is enabled the Timestamp must be
 405:Generated_Source\PSoC6/CapSense_Control.c **** *  updated before calling this function using the
 406:Generated_Source\PSoC6/CapSense_Control.c **** *  CapSense_IncrementGestureTimestamp() function.
 407:Generated_Source\PSoC6/CapSense_Control.c **** *
 408:Generated_Source\PSoC6/CapSense_Control.c **** *  If the Self-test library is enabled, this function executes the baseline duplication
 409:Generated_Source\PSoC6/CapSense_Control.c **** *  test. Refer to CapSense_CheckBaselineDuplication() for details.
 410:Generated_Source\PSoC6/CapSense_Control.c **** *
 411:Generated_Source\PSoC6/CapSense_Control.c **** * \param widgetId
 412:Generated_Source\PSoC6/CapSense_Control.c **** *  Specifies the ID number of the widget to be processed.
 413:Generated_Source\PSoC6/CapSense_Control.c **** *  A macro for the widget ID can be found in the
 414:Generated_Source\PSoC6/CapSense_Control.c **** *  CapSense Configuration header file defined as
 415:Generated_Source\PSoC6/CapSense_Control.c **** *  CapSense_<WidgetName>_WDGT_ID
 416:Generated_Source\PSoC6/CapSense_Control.c **** *
 417:Generated_Source\PSoC6/CapSense_Control.c **** * \return
 418:Generated_Source\PSoC6/CapSense_Control.c **** *  Returns the status of the widget processing:
 419:Generated_Source\PSoC6/CapSense_Control.c **** *  - CY_RET_SUCCESS - The operation is successfully completed
 420:Generated_Source\PSoC6/CapSense_Control.c **** *  - CY_RET_BAD_PARAM - The input parameter is invalid
 421:Generated_Source\PSoC6/CapSense_Control.c **** *  - CY_RET_INVALID_STATE - The specified widget is disabled
 422:Generated_Source\PSoC6/CapSense_Control.c **** *  - CY_RET_BAD_DATA - The processing is failed
 423:Generated_Source\PSoC6/CapSense_Control.c **** *
 424:Generated_Source\PSoC6/CapSense_Control.c **** *******************************************************************************/
 425:Generated_Source\PSoC6/CapSense_Control.c **** cy_status CapSense_ProcessWidget(uint32 widgetId)
 426:Generated_Source\PSoC6/CapSense_Control.c **** {
 427:Generated_Source\PSoC6/CapSense_Control.c ****     cy_status result = CY_RET_SUCCESS;
 428:Generated_Source\PSoC6/CapSense_Control.c ****     CapSense_FLASH_WD_STRUCT const *ptrFlashWdgt;
 429:Generated_Source\PSoC6/CapSense_Control.c **** 
 430:Generated_Source\PSoC6/CapSense_Control.c ****     if (widgetId >= CapSense_TOTAL_WIDGETS)
ARM GAS  C:\Users\Coal\AppData\Local\Temp\cck9DrYz.s 			page 9


 431:Generated_Source\PSoC6/CapSense_Control.c ****     {
 432:Generated_Source\PSoC6/CapSense_Control.c ****         result = CY_RET_BAD_PARAM;
 433:Generated_Source\PSoC6/CapSense_Control.c ****     }
 434:Generated_Source\PSoC6/CapSense_Control.c **** 
 435:Generated_Source\PSoC6/CapSense_Control.c ****     if ((CY_RET_SUCCESS == result) && (0uL == CapSense_GET_WIDGET_EN_STATUS(widgetId)))
 436:Generated_Source\PSoC6/CapSense_Control.c ****     {
 437:Generated_Source\PSoC6/CapSense_Control.c ****         result = CY_RET_INVALID_STATE;
 438:Generated_Source\PSoC6/CapSense_Control.c ****     }
 439:Generated_Source\PSoC6/CapSense_Control.c **** 
 440:Generated_Source\PSoC6/CapSense_Control.c ****     if (CY_RET_SUCCESS == result)
 441:Generated_Source\PSoC6/CapSense_Control.c ****     {
 442:Generated_Source\PSoC6/CapSense_Control.c ****         ptrFlashWdgt = &CapSense_dsFlash.wdgtArray[widgetId];
 443:Generated_Source\PSoC6/CapSense_Control.c **** 
 444:Generated_Source\PSoC6/CapSense_Control.c ****         switch(CapSense_GET_SENSE_METHOD(ptrFlashWdgt))
 445:Generated_Source\PSoC6/CapSense_Control.c ****         {
 446:Generated_Source\PSoC6/CapSense_Control.c ****         #if (0u != CapSense_TOTAL_CSD_WIDGETS)
 447:Generated_Source\PSoC6/CapSense_Control.c ****             case CapSense_SENSE_METHOD_CSD_E:
 448:Generated_Source\PSoC6/CapSense_Control.c ****                 result = CapSense_DpProcessCsdWidgetRawCounts(ptrFlashWdgt);
 449:Generated_Source\PSoC6/CapSense_Control.c ****                 CapSense_DpProcessCsdWidgetStatus(widgetId, ptrFlashWdgt);
 450:Generated_Source\PSoC6/CapSense_Control.c ****                 break;
 451:Generated_Source\PSoC6/CapSense_Control.c ****         #endif /* #if (0u != CapSense_TOTAL_CSD_WIDGETS) */
 452:Generated_Source\PSoC6/CapSense_Control.c **** 
 453:Generated_Source\PSoC6/CapSense_Control.c ****         #if (0u != CapSense_TOTAL_CSX_WIDGETS)
 454:Generated_Source\PSoC6/CapSense_Control.c ****             case CapSense_SENSE_METHOD_CSX_E:
 455:Generated_Source\PSoC6/CapSense_Control.c ****                 result = CapSense_DpProcessCsxWidgetRawCounts(ptrFlashWdgt);
 456:Generated_Source\PSoC6/CapSense_Control.c ****                 CapSense_DpProcessCsxWidgetStatus(widgetId, ptrFlashWdgt);
 457:Generated_Source\PSoC6/CapSense_Control.c ****                 break;
 458:Generated_Source\PSoC6/CapSense_Control.c ****         #endif /* #if (0u != CapSense_TOTAL_CSX_WIDGETS) */
 459:Generated_Source\PSoC6/CapSense_Control.c **** 
 460:Generated_Source\PSoC6/CapSense_Control.c ****         default:
 461:Generated_Source\PSoC6/CapSense_Control.c ****             CY_ASSERT(0 != 0);
 462:Generated_Source\PSoC6/CapSense_Control.c ****             break;
 463:Generated_Source\PSoC6/CapSense_Control.c ****         }
 464:Generated_Source\PSoC6/CapSense_Control.c **** 
 465:Generated_Source\PSoC6/CapSense_Control.c ****         #if (CapSense_ENABLE == CapSense_TST_BSLN_DUPLICATION_EN)
 466:Generated_Source\PSoC6/CapSense_Control.c ****             if (CY_RET_SUCCESS != result)
 467:Generated_Source\PSoC6/CapSense_Control.c ****             {
 468:Generated_Source\PSoC6/CapSense_Control.c ****                 CapSense_UpdateTestResultBaselineDuplication(widgetId, result);
 469:Generated_Source\PSoC6/CapSense_Control.c ****                 result = CY_RET_BAD_DATA;
 470:Generated_Source\PSoC6/CapSense_Control.c ****             }
 471:Generated_Source\PSoC6/CapSense_Control.c ****         #endif /* (CapSense_ENABLE == CapSense_TST_BSLN_DUPLICATION_EN) */
 472:Generated_Source\PSoC6/CapSense_Control.c ****     }
 473:Generated_Source\PSoC6/CapSense_Control.c ****     return result;
 474:Generated_Source\PSoC6/CapSense_Control.c **** }
 475:Generated_Source\PSoC6/CapSense_Control.c **** 
 476:Generated_Source\PSoC6/CapSense_Control.c **** 
 477:Generated_Source\PSoC6/CapSense_Control.c **** /*******************************************************************************
 478:Generated_Source\PSoC6/CapSense_Control.c **** * Function Name: CapSense_ProcessWidgetExt
 479:Generated_Source\PSoC6/CapSense_Control.c **** ****************************************************************************//**
 480:Generated_Source\PSoC6/CapSense_Control.c **** *
 481:Generated_Source\PSoC6/CapSense_Control.c **** * \brief
 482:Generated_Source\PSoC6/CapSense_Control.c **** *  Performs customized data processing on the selected widget.
 483:Generated_Source\PSoC6/CapSense_Control.c **** *
 484:Generated_Source\PSoC6/CapSense_Control.c **** * \details
 485:Generated_Source\PSoC6/CapSense_Control.c **** *  This function performs data processes for the specified widget specified by
 486:Generated_Source\PSoC6/CapSense_Control.c **** *  the mode parameter. The execution order of the requested operations is from
 487:Generated_Source\PSoC6/CapSense_Control.c **** *  LSB to MSB of the mode parameter. For a different order, this API
ARM GAS  C:\Users\Coal\AppData\Local\Temp\cck9DrYz.s 			page 10


 488:Generated_Source\PSoC6/CapSense_Control.c **** *  can be called multiple times with the required mode parameter.
 489:Generated_Source\PSoC6/CapSense_Control.c **** *
 490:Generated_Source\PSoC6/CapSense_Control.c **** *  This function can be used with any of the available scan functions. This
 491:Generated_Source\PSoC6/CapSense_Control.c **** *  function is called only after all the sensors in the specified widget are
 492:Generated_Source\PSoC6/CapSense_Control.c **** *  scanned. Calling this function multiple times with the same mode without
 493:Generated_Source\PSoC6/CapSense_Control.c **** *  sensor scanning causes unexpected behavior. This function ignores the value
 494:Generated_Source\PSoC6/CapSense_Control.c **** *  of the wdgtEnable register.
 495:Generated_Source\PSoC6/CapSense_Control.c **** *
 496:Generated_Source\PSoC6/CapSense_Control.c **** *  The CapSense_PROCESS_CALC_NOISE and
 497:Generated_Source\PSoC6/CapSense_Control.c **** *  CapSense_PROCESS_THRESHOLDS flags are supported by the CSD sensing
 498:Generated_Source\PSoC6/CapSense_Control.c **** *  method only when Auto-tuning mode is enabled.
 499:Generated_Source\PSoC6/CapSense_Control.c **** *
 500:Generated_Source\PSoC6/CapSense_Control.c **** *  The pipeline scan method (i.e. during scanning of a widget, processing
 501:Generated_Source\PSoC6/CapSense_Control.c **** *  of a previously scanned widget is performed) can be implemented using this
 502:Generated_Source\PSoC6/CapSense_Control.c **** *  function and it may reduce the total scan/process time, increase the refresh
 503:Generated_Source\PSoC6/CapSense_Control.c **** *  rate and decrease the power consumption.
 504:Generated_Source\PSoC6/CapSense_Control.c **** *
 505:Generated_Source\PSoC6/CapSense_Control.c **** *  If the Self-test library is enabled, this function executes the baseline duplication
 506:Generated_Source\PSoC6/CapSense_Control.c **** *  test. Refer to CapSense_CheckBaselineDuplication() for details.
 507:Generated_Source\PSoC6/CapSense_Control.c **** *
 508:Generated_Source\PSoC6/CapSense_Control.c **** *  If the Ballistic multiplier filter is enabled the Timestamp must be
 509:Generated_Source\PSoC6/CapSense_Control.c **** *  updated before calling this function using the
 510:Generated_Source\PSoC6/CapSense_Control.c **** *  CapSense_IncrementGestureTimestamp() function.
 511:Generated_Source\PSoC6/CapSense_Control.c **** *
 512:Generated_Source\PSoC6/CapSense_Control.c **** * \param widgetId
 513:Generated_Source\PSoC6/CapSense_Control.c **** *  Specifies the ID number of the widget to be processed.
 514:Generated_Source\PSoC6/CapSense_Control.c **** *  A macro for the widget ID can be found in the CapSense Configuration header
 515:Generated_Source\PSoC6/CapSense_Control.c **** *  file defined as CapSense_<WidgetName>_WDGT_ID.
 516:Generated_Source\PSoC6/CapSense_Control.c **** 
 517:Generated_Source\PSoC6/CapSense_Control.c **** * \param mode
 518:Generated_Source\PSoC6/CapSense_Control.c **** *  Specifies the type of widget processing to be executed for the
 519:Generated_Source\PSoC6/CapSense_Control.c **** *  specified widget:
 520:Generated_Source\PSoC6/CapSense_Control.c **** *    1. Bits [31..6] - Reserved.
 521:Generated_Source\PSoC6/CapSense_Control.c **** *    2. Bits [5..0] - CapSense_PROCESS_ALL - Execute all the tasks.
 522:Generated_Source\PSoC6/CapSense_Control.c **** *    3. Bit [5] - CapSense_PROCESS_STATUS - Update the status (on/off,
 523:Generated_Source\PSoC6/CapSense_Control.c **** *       centroid position).
 524:Generated_Source\PSoC6/CapSense_Control.c **** *    4. Bit [4] - CapSense_PROCESS_THRESHOLDS - Update the thresholds
 525:Generated_Source\PSoC6/CapSense_Control.c **** *       (only in CSD auto-tuning mode).
 526:Generated_Source\PSoC6/CapSense_Control.c **** *    5. Bit [3] - CapSense_PROCESS_CALC_NOISE - Calculate the noise (only in
 527:Generated_Source\PSoC6/CapSense_Control.c **** *       CSD auto-tuning mode).
 528:Generated_Source\PSoC6/CapSense_Control.c **** *    6. Bit [2] - CapSense_PROCESS_DIFFCOUNTS - Update the difference counts.
 529:Generated_Source\PSoC6/CapSense_Control.c **** *    7. Bit [1] - CapSense_PROCESS_BASELINE - Update the baselines.
 530:Generated_Source\PSoC6/CapSense_Control.c **** *    8. Bit [0] - CapSense_PROCESS_FILTER - Run the firmware filters.
 531:Generated_Source\PSoC6/CapSense_Control.c **** *
 532:Generated_Source\PSoC6/CapSense_Control.c **** * \return
 533:Generated_Source\PSoC6/CapSense_Control.c **** *  Returns the status of the widget processing operation:
 534:Generated_Source\PSoC6/CapSense_Control.c **** *  - CY_RET_SUCCESS - The processing is successfully performed.
 535:Generated_Source\PSoC6/CapSense_Control.c **** *  - CY_RET_BAD_PARAM - The input parameter is invalid.
 536:Generated_Source\PSoC6/CapSense_Control.c **** *  - CY_RET_BAD_DATA - The processing failed.
 537:Generated_Source\PSoC6/CapSense_Control.c **** *
 538:Generated_Source\PSoC6/CapSense_Control.c **** *******************************************************************************/
 539:Generated_Source\PSoC6/CapSense_Control.c **** cy_status CapSense_ProcessWidgetExt(uint32 widgetId, uint32 mode)
 540:Generated_Source\PSoC6/CapSense_Control.c **** {
 541:Generated_Source\PSoC6/CapSense_Control.c ****     uint32 snsCount;
 542:Generated_Source\PSoC6/CapSense_Control.c ****     cy_status result = CY_RET_BAD_PARAM;
 543:Generated_Source\PSoC6/CapSense_Control.c ****     CapSense_FLASH_WD_STRUCT const *ptrFlashWdgt;
 544:Generated_Source\PSoC6/CapSense_Control.c ****     CapSense_PTR_FILTER_VARIANT fltrHistV;
ARM GAS  C:\Users\Coal\AppData\Local\Temp\cck9DrYz.s 			page 11


 545:Generated_Source\PSoC6/CapSense_Control.c ****     CapSense_RAM_SNS_STRUCT *ptrSnsTmp;
 546:Generated_Source\PSoC6/CapSense_Control.c **** 
 547:Generated_Source\PSoC6/CapSense_Control.c ****     #if (0u != CapSense_TOTAL_CSD_WIDGETS)
 548:Generated_Source\PSoC6/CapSense_Control.c ****         uint32 isProxWdgt;
 549:Generated_Source\PSoC6/CapSense_Control.c ****     #endif
 550:Generated_Source\PSoC6/CapSense_Control.c **** 
 551:Generated_Source\PSoC6/CapSense_Control.c ****     if (widgetId < CapSense_TOTAL_WIDGETS)
 552:Generated_Source\PSoC6/CapSense_Control.c ****     {
 553:Generated_Source\PSoC6/CapSense_Control.c ****         ptrFlashWdgt = &CapSense_dsFlash.wdgtArray[widgetId];
 554:Generated_Source\PSoC6/CapSense_Control.c ****         snsCount = CapSense_GET_SNS_CNT_BY_PTR(ptrFlashWdgt);
 555:Generated_Source\PSoC6/CapSense_Control.c ****         ptrSnsTmp = ptrFlashWdgt->ptr2SnsRam;
 556:Generated_Source\PSoC6/CapSense_Control.c ****         fltrHistV.ptr = ptrFlashWdgt->ptr2FltrHistory;
 557:Generated_Source\PSoC6/CapSense_Control.c **** 
 558:Generated_Source\PSoC6/CapSense_Control.c ****         switch(CapSense_GET_SENSE_METHOD(ptrFlashWdgt))
 559:Generated_Source\PSoC6/CapSense_Control.c ****         {
 560:Generated_Source\PSoC6/CapSense_Control.c ****         #if (0u != CapSense_TOTAL_CSD_WIDGETS)
 561:Generated_Source\PSoC6/CapSense_Control.c ****             case CapSense_SENSE_METHOD_CSD_E:
 562:Generated_Source\PSoC6/CapSense_Control.c ****             {
 563:Generated_Source\PSoC6/CapSense_Control.c ****                 /* Determine if widget is type of proximity.
 564:Generated_Source\PSoC6/CapSense_Control.c ****                  * The Proximity widgets use different filters and
 565:Generated_Source\PSoC6/CapSense_Control.c ****                  * therefore have different filter history object structure */
 566:Generated_Source\PSoC6/CapSense_Control.c ****                 isProxWdgt = (CapSense_GET_WIDGET_TYPE(ptrFlashWdgt) == CapSense_WD_PROXIMITY_E) ? 
 567:Generated_Source\PSoC6/CapSense_Control.c **** 
 568:Generated_Source\PSoC6/CapSense_Control.c ****                 /* Run the desired processing for the all CSD widget sensors */
 569:Generated_Source\PSoC6/CapSense_Control.c ****                 for (;snsCount-- > 0u;)
 570:Generated_Source\PSoC6/CapSense_Control.c ****                 {
 571:Generated_Source\PSoC6/CapSense_Control.c ****                     result = CapSense_DpProcessCsdSensorRawCountsExt(ptrFlashWdgt, ptrSnsTmp, fltrH
 572:Generated_Source\PSoC6/CapSense_Control.c **** 
 573:Generated_Source\PSoC6/CapSense_Control.c ****                     #if (CapSense_ENABLE == CapSense_TST_BSLN_DUPLICATION_EN)
 574:Generated_Source\PSoC6/CapSense_Control.c ****                         if (CY_RET_SUCCESS != result)
 575:Generated_Source\PSoC6/CapSense_Control.c ****                         {
 576:Generated_Source\PSoC6/CapSense_Control.c ****                             result = (result | CapSense_TST_LSBYTE) & snsCount;
 577:Generated_Source\PSoC6/CapSense_Control.c ****                         }
 578:Generated_Source\PSoC6/CapSense_Control.c ****                     #endif /* (CapSense_ENABLE == CapSense_TST_BSLN_DUPLICATION_EN) */
 579:Generated_Source\PSoC6/CapSense_Control.c **** 
 580:Generated_Source\PSoC6/CapSense_Control.c ****                     /* Move to the next sensor and filter history objects */
 581:Generated_Source\PSoC6/CapSense_Control.c ****                     ptrSnsTmp++;
 582:Generated_Source\PSoC6/CapSense_Control.c ****                     CapSense_INC_FLTR_OBJ_VARIANT(isProxWdgt, fltrHistV);
 583:Generated_Source\PSoC6/CapSense_Control.c ****                 }
 584:Generated_Source\PSoC6/CapSense_Control.c **** 
 585:Generated_Source\PSoC6/CapSense_Control.c ****                 if (0u != (mode & CapSense_PROCESS_STATUS))
 586:Generated_Source\PSoC6/CapSense_Control.c ****                 {
 587:Generated_Source\PSoC6/CapSense_Control.c ****                     CapSense_DpProcessCsdWidgetStatus(widgetId, ptrFlashWdgt);
 588:Generated_Source\PSoC6/CapSense_Control.c ****                 }
 589:Generated_Source\PSoC6/CapSense_Control.c ****                 break;
 590:Generated_Source\PSoC6/CapSense_Control.c ****             }
 591:Generated_Source\PSoC6/CapSense_Control.c ****         #endif /* #if (0u != CapSense_TOTAL_CSD_WIDGETS) */
 592:Generated_Source\PSoC6/CapSense_Control.c **** 
 593:Generated_Source\PSoC6/CapSense_Control.c ****         #if (0u != CapSense_TOTAL_CSX_WIDGETS)
 594:Generated_Source\PSoC6/CapSense_Control.c ****             case CapSense_SENSE_METHOD_CSX_E:
 595:Generated_Source\PSoC6/CapSense_Control.c **** 
 596:Generated_Source\PSoC6/CapSense_Control.c ****                 #if (0u != CapSense_CSX_MULTIPHASE_TX_EN)
 597:Generated_Source\PSoC6/CapSense_Control.c ****                     if ((0u != (mode & CapSense_PROCESS_DECONVOLUTION)) &&
 598:Generated_Source\PSoC6/CapSense_Control.c ****                         (0u != (ptrFlashWdgt->staticConfig & CapSense_MULTIPHASE_TX_MASK)))
 599:Generated_Source\PSoC6/CapSense_Control.c ****                     {
 600:Generated_Source\PSoC6/CapSense_Control.c ****                         CapSense_DpDeconvolution(ptrFlashWdgt);
 601:Generated_Source\PSoC6/CapSense_Control.c ****                     }
ARM GAS  C:\Users\Coal\AppData\Local\Temp\cck9DrYz.s 			page 12


 602:Generated_Source\PSoC6/CapSense_Control.c ****                 #endif /* #if (0u != CapSense_CSX_MULTIPHASE_TX_EN) */
 603:Generated_Source\PSoC6/CapSense_Control.c **** 
 604:Generated_Source\PSoC6/CapSense_Control.c ****                 /* Run the desired processing for the all CSX widget sensors */
 605:Generated_Source\PSoC6/CapSense_Control.c ****                 for (;snsCount-- > 0u;)
 606:Generated_Source\PSoC6/CapSense_Control.c ****                 {
 607:Generated_Source\PSoC6/CapSense_Control.c ****                     result = CapSense_DpProcessCsxSensorRawCountsExt(ptrFlashWdgt, ptrSnsTmp, fltrH
 608:Generated_Source\PSoC6/CapSense_Control.c **** 
 609:Generated_Source\PSoC6/CapSense_Control.c ****                     #if (CapSense_ENABLE == CapSense_TST_BSLN_DUPLICATION_EN)
 610:Generated_Source\PSoC6/CapSense_Control.c ****                         if (CY_RET_SUCCESS != result)
 611:Generated_Source\PSoC6/CapSense_Control.c ****                         {
 612:Generated_Source\PSoC6/CapSense_Control.c ****                             result = (result | CapSense_TST_LSBYTE) & snsCount;
 613:Generated_Source\PSoC6/CapSense_Control.c ****                         }
 614:Generated_Source\PSoC6/CapSense_Control.c ****                     #endif /* (CapSense_ENABLE == CapSense_TST_BSLN_DUPLICATION_EN) */
 615:Generated_Source\PSoC6/CapSense_Control.c **** 
 616:Generated_Source\PSoC6/CapSense_Control.c ****                     /* Move to the next sensor and filter history objects */
 617:Generated_Source\PSoC6/CapSense_Control.c ****                     ptrSnsTmp++;
 618:Generated_Source\PSoC6/CapSense_Control.c ****                     CapSense_INC_REG_FLTR_OBJ(fltrHistV);
 619:Generated_Source\PSoC6/CapSense_Control.c ****                 }
 620:Generated_Source\PSoC6/CapSense_Control.c **** 
 621:Generated_Source\PSoC6/CapSense_Control.c ****                 if (0u != (mode & CapSense_PROCESS_STATUS))
 622:Generated_Source\PSoC6/CapSense_Control.c ****                 {
 623:Generated_Source\PSoC6/CapSense_Control.c ****                     CapSense_DpProcessCsxWidgetStatus(widgetId, ptrFlashWdgt);
 624:Generated_Source\PSoC6/CapSense_Control.c ****                 }
 625:Generated_Source\PSoC6/CapSense_Control.c ****                 break;
 626:Generated_Source\PSoC6/CapSense_Control.c ****         #endif /* #if (0u != CapSense_TOTAL_CSX_WIDGETS) */
 627:Generated_Source\PSoC6/CapSense_Control.c **** 
 628:Generated_Source\PSoC6/CapSense_Control.c ****         default:
 629:Generated_Source\PSoC6/CapSense_Control.c ****             CY_ASSERT(0 != 0);
 630:Generated_Source\PSoC6/CapSense_Control.c ****             break;
 631:Generated_Source\PSoC6/CapSense_Control.c ****         }
 632:Generated_Source\PSoC6/CapSense_Control.c **** 
 633:Generated_Source\PSoC6/CapSense_Control.c ****         #if (CapSense_ENABLE == CapSense_TST_BSLN_DUPLICATION_EN)
 634:Generated_Source\PSoC6/CapSense_Control.c ****             if (CY_RET_SUCCESS != result)
 635:Generated_Source\PSoC6/CapSense_Control.c ****             {
 636:Generated_Source\PSoC6/CapSense_Control.c ****                 CapSense_UpdateTestResultBaselineDuplication(widgetId, snsCount);
 637:Generated_Source\PSoC6/CapSense_Control.c ****                 result = CY_RET_BAD_DATA;
 638:Generated_Source\PSoC6/CapSense_Control.c ****             }
 639:Generated_Source\PSoC6/CapSense_Control.c ****         #endif /* (CapSense_ENABLE == CapSense_TST_BSLN_DUPLICATION_EN) */
 640:Generated_Source\PSoC6/CapSense_Control.c **** 
 641:Generated_Source\PSoC6/CapSense_Control.c ****     }
 642:Generated_Source\PSoC6/CapSense_Control.c ****     return result;
 643:Generated_Source\PSoC6/CapSense_Control.c **** }
 644:Generated_Source\PSoC6/CapSense_Control.c **** 
 645:Generated_Source\PSoC6/CapSense_Control.c **** /*******************************************************************************
 646:Generated_Source\PSoC6/CapSense_Control.c **** * Function Name: CapSense_ProcessSensorExt
 647:Generated_Source\PSoC6/CapSense_Control.c **** ****************************************************************************//**
 648:Generated_Source\PSoC6/CapSense_Control.c **** *
 649:Generated_Source\PSoC6/CapSense_Control.c **** * \brief
 650:Generated_Source\PSoC6/CapSense_Control.c **** *  Performs customized data processing on the selected widget's sensor.
 651:Generated_Source\PSoC6/CapSense_Control.c **** *
 652:Generated_Source\PSoC6/CapSense_Control.c **** * \details
 653:Generated_Source\PSoC6/CapSense_Control.c **** *  This function performs data processes for the specified sensor specified by
 654:Generated_Source\PSoC6/CapSense_Control.c **** *  the mode parameter. The execution order of the requested operations is from
 655:Generated_Source\PSoC6/CapSense_Control.c **** *  LSB to MSB of the mode parameter. For a different order, this
 656:Generated_Source\PSoC6/CapSense_Control.c **** *  function can be called multiple times with the required mode parameter.
 657:Generated_Source\PSoC6/CapSense_Control.c **** *
 658:Generated_Source\PSoC6/CapSense_Control.c **** *  This function can be used with any of the available scan functions. This
ARM GAS  C:\Users\Coal\AppData\Local\Temp\cck9DrYz.s 			page 13


 659:Generated_Source\PSoC6/CapSense_Control.c **** *  function is called only after a specified sensor in the widget is
 660:Generated_Source\PSoC6/CapSense_Control.c **** *  scanned. Calling this function multiple times with the same mode without
 661:Generated_Source\PSoC6/CapSense_Control.c **** *  sensor scanning causes unexpected behavior. This function ignores the value
 662:Generated_Source\PSoC6/CapSense_Control.c **** *  of the wdgtEnable register.
 663:Generated_Source\PSoC6/CapSense_Control.c **** *
 664:Generated_Source\PSoC6/CapSense_Control.c **** *  The CapSense_PROCESS_CALC_NOISE and
 665:Generated_Source\PSoC6/CapSense_Control.c **** *  CapSense_PROCESS_THRESHOLDS flags are supported by the CSD sensing
 666:Generated_Source\PSoC6/CapSense_Control.c **** *  method only when Auto-tuning mode is enabled.
 667:Generated_Source\PSoC6/CapSense_Control.c **** *
 668:Generated_Source\PSoC6/CapSense_Control.c **** *  The pipeline scan method (i.e. during scanning of a sensor, processing
 669:Generated_Source\PSoC6/CapSense_Control.c **** *  of a previously scanned sensor is performed) can be implemented using this
 670:Generated_Source\PSoC6/CapSense_Control.c **** *  function and it may reduce the total scan/process time, increase the refresh
 671:Generated_Source\PSoC6/CapSense_Control.c **** *  rate and decrease the power consumption.
 672:Generated_Source\PSoC6/CapSense_Control.c **** *
 673:Generated_Source\PSoC6/CapSense_Control.c **** *  If the Self-test library is enabled, this function executes the baseline duplication
 674:Generated_Source\PSoC6/CapSense_Control.c **** *  test. Refer to CapSense_CheckBaselineDuplication() for details.
 675:Generated_Source\PSoC6/CapSense_Control.c **** *
 676:Generated_Source\PSoC6/CapSense_Control.c **** * \param widgetId
 677:Generated_Source\PSoC6/CapSense_Control.c **** *  Specifies the ID number of the widget to process one of its sensors.
 678:Generated_Source\PSoC6/CapSense_Control.c **** *  A macro for the widget ID can be found in the
 679:Generated_Source\PSoC6/CapSense_Control.c **** *  CapSense Configuration header file defined as
 680:Generated_Source\PSoC6/CapSense_Control.c **** *  CapSense_<WidgetName>_WDGT_ID.
 681:Generated_Source\PSoC6/CapSense_Control.c **** *
 682:Generated_Source\PSoC6/CapSense_Control.c **** * \param sensorId
 683:Generated_Source\PSoC6/CapSense_Control.c **** *  Specifies the ID number of the sensor within the widget to process it.
 684:Generated_Source\PSoC6/CapSense_Control.c **** *  A macro for the sensor ID within a specified widget can be found in the
 685:Generated_Source\PSoC6/CapSense_Control.c **** *  CapSense Configuration header file defined as
 686:Generated_Source\PSoC6/CapSense_Control.c **** *  CapSense_<WidgetName>_SNS<SensorNumber>_ID.
 687:Generated_Source\PSoC6/CapSense_Control.c **** *
 688:Generated_Source\PSoC6/CapSense_Control.c **** * \param mode
 689:Generated_Source\PSoC6/CapSense_Control.c **** *  Specifies the type of the sensor processing that needs to be executed for the
 690:Generated_Source\PSoC6/CapSense_Control.c **** *  specified sensor:
 691:Generated_Source\PSoC6/CapSense_Control.c **** *    1. Bits [31..5] - Reserved
 692:Generated_Source\PSoC6/CapSense_Control.c **** *    2. Bits [4..0] - CapSense_PROCESS_ALL - Executes all the tasks
 693:Generated_Source\PSoC6/CapSense_Control.c **** *    3. Bit [4] - CapSense_PROCESS_THRESHOLDS - Updates the thresholds (only
 694:Generated_Source\PSoC6/CapSense_Control.c **** *       in auto-tuning mode)
 695:Generated_Source\PSoC6/CapSense_Control.c **** *    4. Bit [3] - CapSense_PROCESS_CALC_NOISE - Calculates the noise (only
 696:Generated_Source\PSoC6/CapSense_Control.c **** *       in auto-tuning mode)
 697:Generated_Source\PSoC6/CapSense_Control.c **** *    5. Bit [2] - CapSense_PROCESS_DIFFCOUNTS - Updates the difference count
 698:Generated_Source\PSoC6/CapSense_Control.c **** *    6. Bit [1] - CapSense_PROCESS_BASELINE - Updates the baseline
 699:Generated_Source\PSoC6/CapSense_Control.c **** *    7. Bit [0] - CapSense_PROCESS_FILTER - Runs the firmware filters
 700:Generated_Source\PSoC6/CapSense_Control.c **** *
 701:Generated_Source\PSoC6/CapSense_Control.c **** * \return
 702:Generated_Source\PSoC6/CapSense_Control.c **** *  Returns the status of the sensor process operation:
 703:Generated_Source\PSoC6/CapSense_Control.c **** *  - CY_RET_SUCCESS - The processing is successfully performed.
 704:Generated_Source\PSoC6/CapSense_Control.c **** *  - CY_RET_BAD_PARAM - The input parameter is invalid.
 705:Generated_Source\PSoC6/CapSense_Control.c **** *  - CY_RET_BAD_DATA - The processing failed.
 706:Generated_Source\PSoC6/CapSense_Control.c **** *
 707:Generated_Source\PSoC6/CapSense_Control.c **** *******************************************************************************/
 708:Generated_Source\PSoC6/CapSense_Control.c **** cy_status CapSense_ProcessSensorExt(uint32 widgetId, uint32 sensorId, uint32 mode)
 709:Generated_Source\PSoC6/CapSense_Control.c **** {
 710:Generated_Source\PSoC6/CapSense_Control.c ****     cy_status result = CY_RET_BAD_PARAM;
 711:Generated_Source\PSoC6/CapSense_Control.c ****     CapSense_FLASH_WD_STRUCT const *ptrFlashWdgt;
 712:Generated_Source\PSoC6/CapSense_Control.c ****     CapSense_PTR_FILTER_VARIANT fltrHistV;
 713:Generated_Source\PSoC6/CapSense_Control.c ****     CapSense_RAM_SNS_STRUCT *ptrSnsTmp;
 714:Generated_Source\PSoC6/CapSense_Control.c **** 
 715:Generated_Source\PSoC6/CapSense_Control.c ****     if ((widgetId < CapSense_TOTAL_WIDGETS) && (sensorId < CapSense_GET_SENSOR_COUNT(widgetId)))
ARM GAS  C:\Users\Coal\AppData\Local\Temp\cck9DrYz.s 			page 14


 716:Generated_Source\PSoC6/CapSense_Control.c ****     {
 717:Generated_Source\PSoC6/CapSense_Control.c ****         result = CY_RET_SUCCESS;
 718:Generated_Source\PSoC6/CapSense_Control.c **** 
 719:Generated_Source\PSoC6/CapSense_Control.c ****         ptrFlashWdgt = &CapSense_dsFlash.wdgtArray[widgetId];
 720:Generated_Source\PSoC6/CapSense_Control.c ****         fltrHistV.ptr = ptrFlashWdgt->ptr2FltrHistory;
 721:Generated_Source\PSoC6/CapSense_Control.c ****         ptrSnsTmp = ptrFlashWdgt->ptr2SnsRam;
 722:Generated_Source\PSoC6/CapSense_Control.c ****         ptrSnsTmp += sensorId;
 723:Generated_Source\PSoC6/CapSense_Control.c **** 
 724:Generated_Source\PSoC6/CapSense_Control.c ****         switch(CapSense_GET_SENSE_METHOD(ptrFlashWdgt))
 725:Generated_Source\PSoC6/CapSense_Control.c ****         {
 726:Generated_Source\PSoC6/CapSense_Control.c ****         #if (0u != CapSense_TOTAL_CSD_WIDGETS)
 727:Generated_Source\PSoC6/CapSense_Control.c ****             case CapSense_SENSE_METHOD_CSD_E:
 728:Generated_Source\PSoC6/CapSense_Control.c ****                 if (CapSense_WD_PROXIMITY_E == (CapSense_WD_TYPE_ENUM)ptrFlashWdgt->wdgtType)
 729:Generated_Source\PSoC6/CapSense_Control.c ****                 {
 730:Generated_Source\PSoC6/CapSense_Control.c ****                     #if (0u != CapSense_PROX_RC_ALP_FILTER_EN)
 731:Generated_Source\PSoC6/CapSense_Control.c ****                         fltrHistV.ptr = &fltrHistV.ptrAlp[sensorId];
 732:Generated_Source\PSoC6/CapSense_Control.c ****                     #elif (0u != CapSense_PROX_RC_FILTER_EN)
 733:Generated_Source\PSoC6/CapSense_Control.c ****                         fltrHistV.ptr = &fltrHistV.ptrProx[sensorId];
 734:Generated_Source\PSoC6/CapSense_Control.c ****                     #endif
 735:Generated_Source\PSoC6/CapSense_Control.c ****                 }
 736:Generated_Source\PSoC6/CapSense_Control.c ****                 else
 737:Generated_Source\PSoC6/CapSense_Control.c ****                 {
 738:Generated_Source\PSoC6/CapSense_Control.c ****                     #if (0u != CapSense_REGULAR_RC_ALP_FILTER_EN)
 739:Generated_Source\PSoC6/CapSense_Control.c ****                         fltrHistV.ptr = &fltrHistV.ptrAlp[sensorId];
 740:Generated_Source\PSoC6/CapSense_Control.c ****                     #elif (0u != CapSense_REGULAR_RC_FILTER_EN)
 741:Generated_Source\PSoC6/CapSense_Control.c ****                         fltrHistV.ptr = &fltrHistV.ptrRegular[sensorId];
 742:Generated_Source\PSoC6/CapSense_Control.c ****                     #endif
 743:Generated_Source\PSoC6/CapSense_Control.c ****                 }
 744:Generated_Source\PSoC6/CapSense_Control.c **** 
 745:Generated_Source\PSoC6/CapSense_Control.c ****                 result = CapSense_DpProcessCsdSensorRawCountsExt(ptrFlashWdgt, ptrSnsTmp, fltrHistV
 746:Generated_Source\PSoC6/CapSense_Control.c ****                 break;
 747:Generated_Source\PSoC6/CapSense_Control.c ****         #endif /* #if (0u != CapSense_TOTAL_CSD_WIDGETS) */
 748:Generated_Source\PSoC6/CapSense_Control.c **** 
 749:Generated_Source\PSoC6/CapSense_Control.c ****         #if (0u != CapSense_TOTAL_CSX_WIDGETS)
 750:Generated_Source\PSoC6/CapSense_Control.c ****             case CapSense_SENSE_METHOD_CSX_E:
 751:Generated_Source\PSoC6/CapSense_Control.c ****                 #if (0u != CapSense_REGULAR_RC_ALP_FILTER_EN)
 752:Generated_Source\PSoC6/CapSense_Control.c ****                     fltrHistV.ptr = &fltrHistV.ptrAlp[sensorId];
 753:Generated_Source\PSoC6/CapSense_Control.c ****                 #elif (0u != CapSense_REGULAR_RC_FILTER_EN)
 754:Generated_Source\PSoC6/CapSense_Control.c ****                     fltrHistV.ptr = &fltrHistV.ptrRegular[sensorId];
 755:Generated_Source\PSoC6/CapSense_Control.c ****                 #endif
 756:Generated_Source\PSoC6/CapSense_Control.c **** 
 757:Generated_Source\PSoC6/CapSense_Control.c ****                 result = CapSense_DpProcessCsxSensorRawCountsExt(ptrFlashWdgt, ptrSnsTmp, fltrHistV
 758:Generated_Source\PSoC6/CapSense_Control.c ****                 break;
 759:Generated_Source\PSoC6/CapSense_Control.c ****         #endif /* #if (0u != CapSense_TOTAL_CSX_WIDGETS) */
 760:Generated_Source\PSoC6/CapSense_Control.c **** 
 761:Generated_Source\PSoC6/CapSense_Control.c ****         default:
 762:Generated_Source\PSoC6/CapSense_Control.c ****             CY_ASSERT(0 != 0);
 763:Generated_Source\PSoC6/CapSense_Control.c ****             break;
 764:Generated_Source\PSoC6/CapSense_Control.c ****         }
 765:Generated_Source\PSoC6/CapSense_Control.c **** 
 766:Generated_Source\PSoC6/CapSense_Control.c ****         #if (CapSense_ENABLE == CapSense_TST_BSLN_DUPLICATION_EN)
 767:Generated_Source\PSoC6/CapSense_Control.c ****             if (CY_RET_SUCCESS != result)
 768:Generated_Source\PSoC6/CapSense_Control.c ****             {
 769:Generated_Source\PSoC6/CapSense_Control.c ****                 CapSense_UpdateTestResultBaselineDuplication(widgetId, sensorId);
 770:Generated_Source\PSoC6/CapSense_Control.c ****                 result = CY_RET_BAD_DATA;
 771:Generated_Source\PSoC6/CapSense_Control.c ****             }
 772:Generated_Source\PSoC6/CapSense_Control.c ****         #endif /* (CapSense_ENABLE == CapSense_TST_BSLN_DUPLICATION_EN) */
ARM GAS  C:\Users\Coal\AppData\Local\Temp\cck9DrYz.s 			page 15


 773:Generated_Source\PSoC6/CapSense_Control.c **** 
 774:Generated_Source\PSoC6/CapSense_Control.c ****     }
 775:Generated_Source\PSoC6/CapSense_Control.c ****     return result;
 776:Generated_Source\PSoC6/CapSense_Control.c **** }
 777:Generated_Source\PSoC6/CapSense_Control.c **** 
 778:Generated_Source\PSoC6/CapSense_Control.c **** /*******************************************************************************
 779:Generated_Source\PSoC6/CapSense_Control.c **** * Function Name: CapSense_Sleep
 780:Generated_Source\PSoC6/CapSense_Control.c **** ****************************************************************************//**
 781:Generated_Source\PSoC6/CapSense_Control.c **** *
 782:Generated_Source\PSoC6/CapSense_Control.c **** * \brief
 783:Generated_Source\PSoC6/CapSense_Control.c **** *  Prepares the Component for deep sleep.
 784:Generated_Source\PSoC6/CapSense_Control.c **** *
 785:Generated_Source\PSoC6/CapSense_Control.c **** * \details
 786:Generated_Source\PSoC6/CapSense_Control.c **** *  Currently this function is empty and exists as a place for future updates,
 787:Generated_Source\PSoC6/CapSense_Control.c **** *  this function will be used to prepare the Component to enter deep sleep.
 788:Generated_Source\PSoC6/CapSense_Control.c **** *
 789:Generated_Source\PSoC6/CapSense_Control.c **** *******************************************************************************/
 790:Generated_Source\PSoC6/CapSense_Control.c **** void CapSense_Sleep(void)
 791:Generated_Source\PSoC6/CapSense_Control.c **** {
 792:Generated_Source\PSoC6/CapSense_Control.c **** }
 793:Generated_Source\PSoC6/CapSense_Control.c **** 
 794:Generated_Source\PSoC6/CapSense_Control.c **** 
 795:Generated_Source\PSoC6/CapSense_Control.c **** /*******************************************************************************
 796:Generated_Source\PSoC6/CapSense_Control.c **** * Function Name: CapSense_Wakeup
 797:Generated_Source\PSoC6/CapSense_Control.c **** ****************************************************************************//**
 798:Generated_Source\PSoC6/CapSense_Control.c **** *
 799:Generated_Source\PSoC6/CapSense_Control.c **** * \brief
 800:Generated_Source\PSoC6/CapSense_Control.c **** *  Resumes the Component after sleep.
 801:Generated_Source\PSoC6/CapSense_Control.c **** *
 802:Generated_Source\PSoC6/CapSense_Control.c **** * \details
 803:Generated_Source\PSoC6/CapSense_Control.c **** *  Resumes the Component after sleep. This function shall be used to resume
 804:Generated_Source\PSoC6/CapSense_Control.c **** *  the Component after exiting deep sleep.
 805:Generated_Source\PSoC6/CapSense_Control.c **** *
 806:Generated_Source\PSoC6/CapSense_Control.c **** *******************************************************************************/
 807:Generated_Source\PSoC6/CapSense_Control.c **** void CapSense_Wakeup(void)
 808:Generated_Source\PSoC6/CapSense_Control.c **** {
 809:Generated_Source\PSoC6/CapSense_Control.c ****     #if(CapSense_BLOCK_ANALOG_WAKEUP_DELAY_US > 0uL)
 810:Generated_Source\PSoC6/CapSense_Control.c ****         Cy_SysLib_DelayUs(CapSense_BLOCK_ANALOG_WAKEUP_DELAY_US);
 811:Generated_Source\PSoC6/CapSense_Control.c ****     #endif /* (CapSense_BLOCK_ANALOG_WAKEUP_DELAY_US > 0uL) */
 812:Generated_Source\PSoC6/CapSense_Control.c **** }
 813:Generated_Source\PSoC6/CapSense_Control.c **** 
 814:Generated_Source\PSoC6/CapSense_Control.c **** 
 815:Generated_Source\PSoC6/CapSense_Control.c **** /*******************************************************************************
 816:Generated_Source\PSoC6/CapSense_Control.c **** * Function Name: CapSense_DeepSleepCallback
 817:Generated_Source\PSoC6/CapSense_Control.c **** ****************************************************************************//**
 818:Generated_Source\PSoC6/CapSense_Control.c **** *
 819:Generated_Source\PSoC6/CapSense_Control.c **** * \brief
 820:Generated_Source\PSoC6/CapSense_Control.c **** *  Handles Active to DeepSleep power mode transition for the CapSense
 821:Generated_Source\PSoC6/CapSense_Control.c **** *  Component.
 822:Generated_Source\PSoC6/CapSense_Control.c **** *
 823:Generated_Source\PSoC6/CapSense_Control.c **** * \details
 824:Generated_Source\PSoC6/CapSense_Control.c **** *  This function handles Active to DeepSleep power mode transition
 825:Generated_Source\PSoC6/CapSense_Control.c **** *  for the CapSense Component.
 826:Generated_Source\PSoC6/CapSense_Control.c **** *  Calling this function directly by application layer is not recommended.
 827:Generated_Source\PSoC6/CapSense_Control.c **** *  Instead, Cy_SysPm_DeepSleep() should be used for the Active to DeepSleep
 828:Generated_Source\PSoC6/CapSense_Control.c **** *  power mode transition of the device.
 829:Generated_Source\PSoC6/CapSense_Control.c **** *
ARM GAS  C:\Users\Coal\AppData\Local\Temp\cck9DrYz.s 			page 16


 830:Generated_Source\PSoC6/CapSense_Control.c **** *  For proper operation of the CapSense Component during the Active to
 831:Generated_Source\PSoC6/CapSense_Control.c **** *  DeepSleep mode transition, a callback to this API should be registered
 832:Generated_Source\PSoC6/CapSense_Control.c **** *  using the Cy_SysPm_RegisterCallback() function with CY_SYSPM_DEEPSLEEP
 833:Generated_Source\PSoC6/CapSense_Control.c **** *  type. Once the callback is registered, this function is called by the
 834:Generated_Source\PSoC6/CapSense_Control.c **** *  Cy_SysPm_DeepSleep() function to prepare the Component to the device
 835:Generated_Source\PSoC6/CapSense_Control.c **** *  power mode transition.
 836:Generated_Source\PSoC6/CapSense_Control.c **** *
 837:Generated_Source\PSoC6/CapSense_Control.c **** *  When this function is called with CY_SYSPM_CHECK_READY as input, this
 838:Generated_Source\PSoC6/CapSense_Control.c **** *  function returns CY_SYSPM_SUCCESS if no scanning is in progress, otherwise
 839:Generated_Source\PSoC6/CapSense_Control.c **** *  CY_SYSPM_FAIL is returned. If CY_SYSPM_FAIL status is returned, a device
 840:Generated_Source\PSoC6/CapSense_Control.c **** *  cannot change the power mode without completing the current scan as
 841:Generated_Source\PSoC6/CapSense_Control.c **** *  a transition to DeepSleep during the scan can disrupt the Component
 842:Generated_Source\PSoC6/CapSense_Control.c **** *  operation.
 843:Generated_Source\PSoC6/CapSense_Control.c **** *
 844:Generated_Source\PSoC6/CapSense_Control.c **** * \param callbackParams
 845:Generated_Source\PSoC6/CapSense_Control.c **** *  Refer to the description of the cy_stc_syspm_callback_params_t type in the
 846:Generated_Source\PSoC6/CapSense_Control.c **** *  Peripheral Driver Library documentation.
 847:Generated_Source\PSoC6/CapSense_Control.c **** *
 848:Generated_Source\PSoC6/CapSense_Control.c **** * \return
 849:Generated_Source\PSoC6/CapSense_Control.c **** *  Returns the status of the operation requested by the mode parameter:
 850:Generated_Source\PSoC6/CapSense_Control.c **** *  - CY_SYSPM_SUCCESS  - DeepSleep power mode can be entered.
 851:Generated_Source\PSoC6/CapSense_Control.c **** *  - CY_SYSPM_FAIL     - DeepSleep power mode cannot be entered.
 852:Generated_Source\PSoC6/CapSense_Control.c **** *
 853:Generated_Source\PSoC6/CapSense_Control.c **** *******************************************************************************/
 854:Generated_Source\PSoC6/CapSense_Control.c **** cy_en_syspm_status_t CapSense_DeepSleepCallback(cy_stc_syspm_callback_params_t *callbackParams)
 855:Generated_Source\PSoC6/CapSense_Control.c **** {
 856:Generated_Source\PSoC6/CapSense_Control.c ****     return(CapSense_SwitchPowerModeCallback(callbackParams));
 857:Generated_Source\PSoC6/CapSense_Control.c **** }
 858:Generated_Source\PSoC6/CapSense_Control.c **** 
 859:Generated_Source\PSoC6/CapSense_Control.c **** 
 860:Generated_Source\PSoC6/CapSense_Control.c **** /*******************************************************************************
 861:Generated_Source\PSoC6/CapSense_Control.c **** * Function Name: CapSense_EnterLowPowerCallback
 862:Generated_Source\PSoC6/CapSense_Control.c **** ****************************************************************************//**
 863:Generated_Source\PSoC6/CapSense_Control.c **** *
 864:Generated_Source\PSoC6/CapSense_Control.c **** * \brief
 865:Generated_Source\PSoC6/CapSense_Control.c **** *  Handles Active to Low Power Active (LPActive) power mode transition for
 866:Generated_Source\PSoC6/CapSense_Control.c **** *  the CapSense Component.
 867:Generated_Source\PSoC6/CapSense_Control.c **** *
 868:Generated_Source\PSoC6/CapSense_Control.c **** * \details
 869:Generated_Source\PSoC6/CapSense_Control.c **** *  This function handles the Active to LPActive power mode transition for
 870:Generated_Source\PSoC6/CapSense_Control.c **** *  the CapSense Component.
 871:Generated_Source\PSoC6/CapSense_Control.c **** *  Calling this function directly by application layer is not recommended.
 872:Generated_Source\PSoC6/CapSense_Control.c **** *  Instead, Cy_SysPm_EnterLpMode() should be used for the Active to LPActive
 873:Generated_Source\PSoC6/CapSense_Control.c **** *  power mode transition of the device.
 874:Generated_Source\PSoC6/CapSense_Control.c **** *
 875:Generated_Source\PSoC6/CapSense_Control.c **** *  For proper operation of the CapSense Component during the Active to
 876:Generated_Source\PSoC6/CapSense_Control.c **** *  LPActive mode transition, a callback to this function should be registered
 877:Generated_Source\PSoC6/CapSense_Control.c **** *  using the Cy_SysPm_RegisterCallback() function with CY_SYSPM_ENTER_LP_MODE
 878:Generated_Source\PSoC6/CapSense_Control.c **** *  type. Once the callback is registered, this function is called by the
 879:Generated_Source\PSoC6/CapSense_Control.c **** *  Cy_SysPm_EnterLpMode() function to prepare the Component to the device
 880:Generated_Source\PSoC6/CapSense_Control.c **** *  power mode transition.
 881:Generated_Source\PSoC6/CapSense_Control.c **** *
 882:Generated_Source\PSoC6/CapSense_Control.c **** *  When this function is called with CY_SYSPM_CHECK_READY as input, this
 883:Generated_Source\PSoC6/CapSense_Control.c **** *  function returns CY_SYSPM_SUCCESS if no scanning is in progress, otherwise
 884:Generated_Source\PSoC6/CapSense_Control.c **** *  CY_SYSPM_FAIL is returned. If CY_SYSPM_FAIL status is returned, a device
 885:Generated_Source\PSoC6/CapSense_Control.c **** *  cannot change the power mode without completing the current scan as
 886:Generated_Source\PSoC6/CapSense_Control.c **** *  a transition to LPActive during the scan can disrupt the Component
ARM GAS  C:\Users\Coal\AppData\Local\Temp\cck9DrYz.s 			page 17


 887:Generated_Source\PSoC6/CapSense_Control.c **** *  operation.
 888:Generated_Source\PSoC6/CapSense_Control.c **** *
 889:Generated_Source\PSoC6/CapSense_Control.c **** * \param callbackParams
 890:Generated_Source\PSoC6/CapSense_Control.c **** *  Refer to the description of the cy_stc_syspm_callback_params_t type in the
 891:Generated_Source\PSoC6/CapSense_Control.c **** *  Peripheral Driver Library documentation.
 892:Generated_Source\PSoC6/CapSense_Control.c **** *
 893:Generated_Source\PSoC6/CapSense_Control.c **** * \return
 894:Generated_Source\PSoC6/CapSense_Control.c **** *  Returns the status of the operation requested by the mode parameter:
 895:Generated_Source\PSoC6/CapSense_Control.c **** *  - CY_SYSPM_SUCCESS  - LPActive power mode can be entered.
 896:Generated_Source\PSoC6/CapSense_Control.c **** *  - CY_SYSPM_FAIL     - LPActive power mode cannot be entered.
 897:Generated_Source\PSoC6/CapSense_Control.c **** *
 898:Generated_Source\PSoC6/CapSense_Control.c **** *******************************************************************************/
 899:Generated_Source\PSoC6/CapSense_Control.c **** cy_en_syspm_status_t CapSense_EnterLowPowerCallback(cy_stc_syspm_callback_params_t *callbackParams)
 900:Generated_Source\PSoC6/CapSense_Control.c **** {
 901:Generated_Source\PSoC6/CapSense_Control.c ****     return(CapSense_SwitchPowerModeCallback(callbackParams));
 902:Generated_Source\PSoC6/CapSense_Control.c **** }
 903:Generated_Source\PSoC6/CapSense_Control.c **** 
 904:Generated_Source\PSoC6/CapSense_Control.c **** 
 905:Generated_Source\PSoC6/CapSense_Control.c **** /*******************************************************************************
 906:Generated_Source\PSoC6/CapSense_Control.c **** * Function Name: CapSense_ExitLowPowerCallback
 907:Generated_Source\PSoC6/CapSense_Control.c **** ****************************************************************************//**
 908:Generated_Source\PSoC6/CapSense_Control.c **** *
 909:Generated_Source\PSoC6/CapSense_Control.c **** * \brief
 910:Generated_Source\PSoC6/CapSense_Control.c **** *  Handles Low Power Active (LPActive) to Active power mode transition for
 911:Generated_Source\PSoC6/CapSense_Control.c **** *  the CapSense Component.
 912:Generated_Source\PSoC6/CapSense_Control.c **** *
 913:Generated_Source\PSoC6/CapSense_Control.c **** * \details
 914:Generated_Source\PSoC6/CapSense_Control.c **** *  This function handles LPActive to Active power mode transition for
 915:Generated_Source\PSoC6/CapSense_Control.c **** *  the CapSense Component.
 916:Generated_Source\PSoC6/CapSense_Control.c **** *  Calling this function directly by application layer is not recommended.
 917:Generated_Source\PSoC6/CapSense_Control.c **** *  Instead, Cy_SysPm_ExitLpMode() should be used for the LPActive to Active
 918:Generated_Source\PSoC6/CapSense_Control.c **** *  power mode transition of the device.
 919:Generated_Source\PSoC6/CapSense_Control.c **** *
 920:Generated_Source\PSoC6/CapSense_Control.c **** *  For proper operation of the CapSense Component during the LPActive to
 921:Generated_Source\PSoC6/CapSense_Control.c **** *  Active mode transition, a callback to this function should be registered
 922:Generated_Source\PSoC6/CapSense_Control.c **** *  using Cy_SysPm_RegisterCallback() function with CY_SYSPM_EXIT_LP_MODE
 923:Generated_Source\PSoC6/CapSense_Control.c **** *  type. Once the callback is registered, this function is called by the
 924:Generated_Source\PSoC6/CapSense_Control.c **** *  Cy_SysPm_ExitLpMode() function to prepare the Component to the device
 925:Generated_Source\PSoC6/CapSense_Control.c **** *  power mode transition.
 926:Generated_Source\PSoC6/CapSense_Control.c **** *
 927:Generated_Source\PSoC6/CapSense_Control.c **** *  When this function is called with CY_SYSPM_CHECK_READY as input, this
 928:Generated_Source\PSoC6/CapSense_Control.c **** *  function returns CY_SYSPM_SUCCESS if no scanning is in progress, otherwise
 929:Generated_Source\PSoC6/CapSense_Control.c **** *  CY_SYSPM_FAIL is returned. If CY_SYSPM_FAIL status is returned, a device
 930:Generated_Source\PSoC6/CapSense_Control.c **** *  cannot change the power mode without completing the current scan as
 931:Generated_Source\PSoC6/CapSense_Control.c **** *  a transition to Active during the scan can disrupt the Component
 932:Generated_Source\PSoC6/CapSense_Control.c **** *  operation.
 933:Generated_Source\PSoC6/CapSense_Control.c **** 
 934:Generated_Source\PSoC6/CapSense_Control.c **** * \param callbackParams
 935:Generated_Source\PSoC6/CapSense_Control.c **** *  Refer to the description of the cy_stc_syspm_callback_params_t type in the
 936:Generated_Source\PSoC6/CapSense_Control.c **** *  Peripheral Driver Library documentation.
 937:Generated_Source\PSoC6/CapSense_Control.c **** *
 938:Generated_Source\PSoC6/CapSense_Control.c **** * \return
 939:Generated_Source\PSoC6/CapSense_Control.c **** *  Returns the status of the operation requested by the mode parameter:
 940:Generated_Source\PSoC6/CapSense_Control.c **** *  - CY_SYSPM_SUCCESS  - Active power mode can be entered.
 941:Generated_Source\PSoC6/CapSense_Control.c **** *  - CY_SYSPM_FAIL     - Active power mode cannot be entered.
 942:Generated_Source\PSoC6/CapSense_Control.c **** *
 943:Generated_Source\PSoC6/CapSense_Control.c **** *******************************************************************************/
ARM GAS  C:\Users\Coal\AppData\Local\Temp\cck9DrYz.s 			page 18


 944:Generated_Source\PSoC6/CapSense_Control.c **** cy_en_syspm_status_t CapSense_ExitLowPowerCallback(cy_stc_syspm_callback_params_t *callbackParams)
 945:Generated_Source\PSoC6/CapSense_Control.c **** {
 946:Generated_Source\PSoC6/CapSense_Control.c ****     return(CapSense_SwitchPowerModeCallback(callbackParams));
 947:Generated_Source\PSoC6/CapSense_Control.c **** }
 948:Generated_Source\PSoC6/CapSense_Control.c **** 
 949:Generated_Source\PSoC6/CapSense_Control.c **** 
 950:Generated_Source\PSoC6/CapSense_Control.c **** /*******************************************************************************
 951:Generated_Source\PSoC6/CapSense_Control.c **** * Function Name: CapSense_SwitchPowerModeCallback
 952:Generated_Source\PSoC6/CapSense_Control.c **** ****************************************************************************//**
 953:Generated_Source\PSoC6/CapSense_Control.c **** *
 954:Generated_Source\PSoC6/CapSense_Control.c **** * \brief
 955:Generated_Source\PSoC6/CapSense_Control.c **** *  Handles the switching power mode for the CapSense Component.
 956:Generated_Source\PSoC6/CapSense_Control.c **** *
 957:Generated_Source\PSoC6/CapSense_Control.c **** * \details
 958:Generated_Source\PSoC6/CapSense_Control.c **** *  This function handles swithing of system power mode.
 959:Generated_Source\PSoC6/CapSense_Control.c **** *  When this function is called with the mode parameter set to CY_SYSPM_CHECK_READY,
 960:Generated_Source\PSoC6/CapSense_Control.c **** *  the function returns CY_SYSPM_SUCCESS if no scanning is in progress, otherwise
 961:Generated_Source\PSoC6/CapSense_Control.c **** *  CY_SYSPM_FAIL is returned that means that the device cannot switch the power mode
 962:Generated_Source\PSoC6/CapSense_Control.c **** *  without finishing the current scan that is in progress (switching power mode
 963:Generated_Source\PSoC6/CapSense_Control.c **** *  during the scan can disrupt a sensor scan result and produce an unexpected
 964:Generated_Source\PSoC6/CapSense_Control.c **** *  behavior).
 965:Generated_Source\PSoC6/CapSense_Control.c **** *
 966:Generated_Source\PSoC6/CapSense_Control.c **** * \param callbackParams
 967:Generated_Source\PSoC6/CapSense_Control.c **** *  Refer to the description of the cy_stc_syspm_callback_params_t type.
 968:Generated_Source\PSoC6/CapSense_Control.c **** *
 969:Generated_Source\PSoC6/CapSense_Control.c **** * \return
 970:Generated_Source\PSoC6/CapSense_Control.c **** *  Returns the status of the operation requeted by mode parameter:
 971:Generated_Source\PSoC6/CapSense_Control.c **** *  - CY_SYSPM_SUCCESS  - Switching power mode can be done
 972:Generated_Source\PSoC6/CapSense_Control.c **** *  - CY_SYSPM_FAIL     - Switching power mode cannot be done.
 973:Generated_Source\PSoC6/CapSense_Control.c **** *
 974:Generated_Source\PSoC6/CapSense_Control.c **** *******************************************************************************/
 975:Generated_Source\PSoC6/CapSense_Control.c **** static cy_en_syspm_status_t CapSense_SwitchPowerModeCallback(cy_stc_syspm_callback_params_t *callba
 976:Generated_Source\PSoC6/CapSense_Control.c **** {
  27              		.loc 1 976 0
  28              		.cfi_startproc
  29              		@ args = 0, pretend = 0, frame = 0
  30              		@ frame_needed = 0, uses_anonymous_args = 0
  31              	.LVL0:
  32 0000 10B5     		push	{r4, lr}
  33              		.cfi_def_cfa_offset 8
  34              		.cfi_offset 4, -8
  35              		.cfi_offset 14, -4
  36              	.LVL1:
 977:Generated_Source\PSoC6/CapSense_Control.c ****     cy_en_syspm_status_t retVal = CY_SYSPM_SUCCESS;
 978:Generated_Source\PSoC6/CapSense_Control.c **** 
 979:Generated_Source\PSoC6/CapSense_Control.c ****     #if (0u != CapSense_ADC_EN)
 980:Generated_Source\PSoC6/CapSense_Control.c ****         uint8 temp;
 981:Generated_Source\PSoC6/CapSense_Control.c ****     #endif /* (0u != CapSense_ADC_EN) */
 982:Generated_Source\PSoC6/CapSense_Control.c **** 
 983:Generated_Source\PSoC6/CapSense_Control.c ****     switch(callbackParams->mode)
  37              		.loc 1 983 0
  38 0002 0378     		ldrb	r3, [r0]
  39 0004 012B     		cmp	r3, #1
  40 0006 04D1     		bne	.L6
 984:Generated_Source\PSoC6/CapSense_Control.c ****     {
 985:Generated_Source\PSoC6/CapSense_Control.c ****     case (CY_SYSPM_CHECK_READY):
 986:Generated_Source\PSoC6/CapSense_Control.c ****         if (CapSense_NOT_BUSY != CapSense_IsBusy())
ARM GAS  C:\Users\Coal\AppData\Local\Temp\cck9DrYz.s 			page 19


  41              		.loc 1 986 0
  42 0008 FFF7FEFF 		bl	CapSense_IsBusy
  43              	.LVL2:
  44 000c 0028     		cmp	r0, #0
  45 000e 02D1     		bne	.L5
  46 0010 02E0     		b	.L2
  47              	.LVL3:
  48              	.L6:
 977:Generated_Source\PSoC6/CapSense_Control.c ****     cy_en_syspm_status_t retVal = CY_SYSPM_SUCCESS;
  49              		.loc 1 977 0
  50 0012 0020     		movs	r0, #0
  51              	.LVL4:
  52 0014 00E0     		b	.L2
  53              	.L5:
 987:Generated_Source\PSoC6/CapSense_Control.c ****         {
 988:Generated_Source\PSoC6/CapSense_Control.c ****             /* Scanning in progress */
 989:Generated_Source\PSoC6/CapSense_Control.c ****             retVal = CY_SYSPM_FAIL;
  54              		.loc 1 989 0
  55 0016 0148     		ldr	r0, .L7
  56              	.L2:
  57              	.LVL5:
 990:Generated_Source\PSoC6/CapSense_Control.c ****         }
 991:Generated_Source\PSoC6/CapSense_Control.c ****         #if (0u != CapSense_ADC_EN)
 992:Generated_Source\PSoC6/CapSense_Control.c ****             temp = CapSense_AdcIsBusy();
 993:Generated_Source\PSoC6/CapSense_Control.c ****             if ((CapSense_AdcSTATUS_IDLE != temp) &&
 994:Generated_Source\PSoC6/CapSense_Control.c ****                 (CapSense_AdcSTATUS_OVERFLOW != temp))
 995:Generated_Source\PSoC6/CapSense_Control.c ****             {
 996:Generated_Source\PSoC6/CapSense_Control.c ****                 /* Scanning in progress */
 997:Generated_Source\PSoC6/CapSense_Control.c ****                 retVal = CY_SYSPM_FAIL;
 998:Generated_Source\PSoC6/CapSense_Control.c ****             }
 999:Generated_Source\PSoC6/CapSense_Control.c ****         #endif /* (0u != CapSense_ADC_EN) */
1000:Generated_Source\PSoC6/CapSense_Control.c ****         break;
1001:Generated_Source\PSoC6/CapSense_Control.c **** 
1002:Generated_Source\PSoC6/CapSense_Control.c ****     default:
1003:Generated_Source\PSoC6/CapSense_Control.c ****         break;
1004:Generated_Source\PSoC6/CapSense_Control.c ****     }
1005:Generated_Source\PSoC6/CapSense_Control.c **** 
1006:Generated_Source\PSoC6/CapSense_Control.c ****     return(retVal);
1007:Generated_Source\PSoC6/CapSense_Control.c **** }
  58              		.loc 1 1007 0
  59              		@ sp needed
  60 0018 10BD     		pop	{r4, pc}
  61              	.L8:
  62 001a C046     		.align	2
  63              	.L7:
  64 001c FF004200 		.word	4325631
  65              		.cfi_endproc
  66              	.LFE179:
  67              		.size	CapSense_SwitchPowerModeCallback, .-CapSense_SwitchPowerModeCallback
  68              		.section	.text.CapSense_Initialize,"ax",%progbits
  69              		.align	2
  70              		.global	CapSense_Initialize
  71              		.code	16
  72              		.thumb_func
  73              		.type	CapSense_Initialize, %function
  74              	CapSense_Initialize:
  75              	.LFB167:
ARM GAS  C:\Users\Coal\AppData\Local\Temp\cck9DrYz.s 			page 20


 202:Generated_Source\PSoC6/CapSense_Control.c ****     cy_status result;
  76              		.loc 1 202 0
  77              		.cfi_startproc
  78              		@ args = 0, pretend = 0, frame = 0
  79              		@ frame_needed = 0, uses_anonymous_args = 0
  80 0000 10B5     		push	{r4, lr}
  81              		.cfi_def_cfa_offset 8
  82              		.cfi_offset 4, -8
  83              		.cfi_offset 14, -4
 206:Generated_Source\PSoC6/CapSense_Control.c ****     {
  84              		.loc 1 206 0
  85 0002 084B     		ldr	r3, .L11
  86 0004 1B78     		ldrb	r3, [r3]
  87 0006 002B     		cmp	r3, #0
  88 0008 06D1     		bne	.L10
 208:Generated_Source\PSoC6/CapSense_Control.c ****         CapSense_TuInitialize();
  89              		.loc 1 208 0
  90 000a FFF7FEFF 		bl	CapSense_DsInitialize
  91              	.LVL6:
 209:Generated_Source\PSoC6/CapSense_Control.c ****         CapSense_InitVar = CapSense_INIT_DONE;
  92              		.loc 1 209 0
  93 000e FFF7FEFF 		bl	CapSense_TuInitialize
  94              	.LVL7:
 210:Generated_Source\PSoC6/CapSense_Control.c ****     }
  95              		.loc 1 210 0
  96 0012 0122     		movs	r2, #1
  97 0014 034B     		ldr	r3, .L11
  98 0016 1A70     		strb	r2, [r3]
  99              	.L10:
 213:Generated_Source\PSoC6/CapSense_Control.c **** 
 100              		.loc 1 213 0
 101 0018 FFF7FEFF 		bl	CapSense_DpInitialize
 102              	.LVL8:
 215:Generated_Source\PSoC6/CapSense_Control.c **** 
 103              		.loc 1 215 0
 104 001c FFF7FEFF 		bl	CapSense_SsInitialize
 105              	.LVL9:
 218:Generated_Source\PSoC6/CapSense_Control.c **** 
 106              		.loc 1 218 0
 107              		@ sp needed
 108 0020 10BD     		pop	{r4, pc}
 109              	.L12:
 110 0022 C046     		.align	2
 111              	.L11:
 112 0024 00000000 		.word	.LANCHOR0
 113              		.cfi_endproc
 114              	.LFE167:
 115              		.size	CapSense_Initialize, .-CapSense_Initialize
 116              		.section	.text.CapSense_Start,"ax",%progbits
 117              		.align	2
 118              		.global	CapSense_Start
 119              		.code	16
 120              		.thumb_func
 121              		.type	CapSense_Start, %function
 122              	CapSense_Start:
 123              	.LFB166:
 126:Generated_Source\PSoC6/CapSense_Control.c ****     cy_status result;
ARM GAS  C:\Users\Coal\AppData\Local\Temp\cck9DrYz.s 			page 21


 124              		.loc 1 126 0
 125              		.cfi_startproc
 126              		@ args = 0, pretend = 0, frame = 0
 127              		@ frame_needed = 0, uses_anonymous_args = 0
 128 0000 10B5     		push	{r4, lr}
 129              		.cfi_def_cfa_offset 8
 130              		.cfi_offset 4, -8
 131              		.cfi_offset 14, -4
 130:Generated_Source\PSoC6/CapSense_Control.c **** 
 132              		.loc 1 130 0
 133 0002 FFF7FEFF 		bl	CapSense_Initialize
 134              	.LVL10:
 135 0006 041E     		subs	r4, r0, #0
 136              	.LVL11:
 147:Generated_Source\PSoC6/CapSense_Control.c ****     {
 137              		.loc 1 147 0
 138 0008 02D1     		bne	.L15
 149:Generated_Source\PSoC6/CapSense_Control.c ****     }
 139              		.loc 1 149 0
 140 000a FFF7FEFF 		bl	CapSense_ScanAllWidgets
 141              	.LVL12:
 142 000e 0400     		movs	r4, r0
 143              	.LVL13:
 144              	.L15:
 152:Generated_Source\PSoC6/CapSense_Control.c **** 
 145              		.loc 1 152 0 discriminator 1
 146 0010 FFF7FEFF 		bl	CapSense_IsBusy
 147              	.LVL14:
 148 0014 0028     		cmp	r0, #0
 149 0016 FBD1     		bne	.L15
 154:Generated_Source\PSoC6/CapSense_Control.c ****     CapSense_InitializeAllBaselines();
 150              		.loc 1 154 0
 151 0018 FFF7FEFF 		bl	CapSense_FtInitialize
 152              	.LVL15:
 155:Generated_Source\PSoC6/CapSense_Control.c **** 
 153              		.loc 1 155 0
 154 001c FFF7FEFF 		bl	CapSense_InitializeAllBaselines
 155              	.LVL16:
 176:Generated_Source\PSoC6/CapSense_Control.c **** 
 156              		.loc 1 176 0
 157 0020 2000     		movs	r0, r4
 158              		@ sp needed
 159              	.LVL17:
 160 0022 10BD     		pop	{r4, pc}
 161              		.cfi_endproc
 162              	.LFE166:
 163              		.size	CapSense_Start, .-CapSense_Start
 164              		.section	.text.CapSense_Stop,"ax",%progbits
 165              		.align	2
 166              		.global	CapSense_Stop
 167              		.code	16
 168              		.thumb_func
 169              		.type	CapSense_Stop, %function
 170              	CapSense_Stop:
 171              	.LFB168:
 244:Generated_Source\PSoC6/CapSense_Control.c ****     cy_status result = CY_RET_SUCCESS;
 172              		.loc 1 244 0
ARM GAS  C:\Users\Coal\AppData\Local\Temp\cck9DrYz.s 			page 22


 173              		.cfi_startproc
 174              		@ args = 0, pretend = 0, frame = 0
 175              		@ frame_needed = 0, uses_anonymous_args = 0
 176              		@ link register save eliminated.
 177              	.LVL18:
 255:Generated_Source\PSoC6/CapSense_Control.c **** 
 178              		.loc 1 255 0
 179 0000 0022     		movs	r2, #0
 180 0002 024B     		ldr	r3, .L17
 181 0004 1A70     		strb	r2, [r3]
 258:Generated_Source\PSoC6/CapSense_Control.c **** 
 182              		.loc 1 258 0
 183 0006 0020     		movs	r0, #0
 184              		@ sp needed
 185 0008 7047     		bx	lr
 186              	.L18:
 187 000a C046     		.align	2
 188              	.L17:
 189 000c 00000000 		.word	.LANCHOR0
 190              		.cfi_endproc
 191              	.LFE168:
 192              		.size	CapSense_Stop, .-CapSense_Stop
 193              		.section	.text.CapSense_Resume,"ax",%progbits
 194              		.align	2
 195              		.global	CapSense_Resume
 196              		.code	16
 197              		.thumb_func
 198              		.type	CapSense_Resume, %function
 199              	CapSense_Resume:
 200              	.LFB169:
 281:Generated_Source\PSoC6/CapSense_Control.c ****     cy_status result;
 201              		.loc 1 281 0
 202              		.cfi_startproc
 203              		@ args = 0, pretend = 0, frame = 0
 204              		@ frame_needed = 0, uses_anonymous_args = 0
 205 0000 10B5     		push	{r4, lr}
 206              		.cfi_def_cfa_offset 8
 207              		.cfi_offset 4, -8
 208              		.cfi_offset 14, -4
 285:Generated_Source\PSoC6/CapSense_Control.c ****     {
 209              		.loc 1 285 0
 210 0002 074B     		ldr	r3, .L21
 211 0004 1B78     		ldrb	r3, [r3]
 212 0006 002B     		cmp	r3, #0
 213 0008 04D1     		bne	.L20
 287:Generated_Source\PSoC6/CapSense_Control.c ****         CapSense_InitVar = CapSense_INIT_DONE;
 214              		.loc 1 287 0
 215 000a FFF7FEFF 		bl	CapSense_TuInitialize
 216              	.LVL19:
 288:Generated_Source\PSoC6/CapSense_Control.c ****     }
 217              		.loc 1 288 0
 218 000e 0122     		movs	r2, #1
 219 0010 034B     		ldr	r3, .L21
 220 0012 1A70     		strb	r2, [r3]
 221              	.L20:
 290:Generated_Source\PSoC6/CapSense_Control.c **** 
 222              		.loc 1 290 0
ARM GAS  C:\Users\Coal\AppData\Local\Temp\cck9DrYz.s 			page 23


 223 0014 FFF7FEFF 		bl	CapSense_DpInitialize
 224              	.LVL20:
 292:Generated_Source\PSoC6/CapSense_Control.c **** 
 225              		.loc 1 292 0
 226 0018 FFF7FEFF 		bl	CapSense_SsInitialize
 227              	.LVL21:
 295:Generated_Source\PSoC6/CapSense_Control.c **** 
 228              		.loc 1 295 0
 229              		@ sp needed
 230 001c 10BD     		pop	{r4, pc}
 231              	.L22:
 232 001e C046     		.align	2
 233              	.L21:
 234 0020 00000000 		.word	.LANCHOR0
 235              		.cfi_endproc
 236              	.LFE169:
 237              		.size	CapSense_Resume, .-CapSense_Resume
 238              		.section	.text.CapSense_ProcessAllWidgets,"ax",%progbits
 239              		.align	2
 240              		.global	CapSense_ProcessAllWidgets
 241              		.code	16
 242              		.thumb_func
 243              		.type	CapSense_ProcessAllWidgets, %function
 244              	CapSense_ProcessAllWidgets:
 245              	.LFB170:
 338:Generated_Source\PSoC6/CapSense_Control.c ****     uint32 wdgtId;
 246              		.loc 1 338 0
 247              		.cfi_startproc
 248              		@ args = 0, pretend = 0, frame = 0
 249              		@ frame_needed = 0, uses_anonymous_args = 0
 250 0000 70B5     		push	{r4, r5, r6, lr}
 251              		.cfi_def_cfa_offset 16
 252              		.cfi_offset 4, -16
 253              		.cfi_offset 5, -12
 254              		.cfi_offset 6, -8
 255              		.cfi_offset 14, -4
 256              	.LVL22:
 343:Generated_Source\PSoC6/CapSense_Control.c **** 
 257              		.loc 1 343 0
 258 0002 0E4E     		ldr	r6, .L27
 340:Generated_Source\PSoC6/CapSense_Control.c ****     CapSense_FLASH_WD_STRUCT const *ptrFlashWdgt;
 259              		.loc 1 340 0
 260 0004 0024     		movs	r4, #0
 345:Generated_Source\PSoC6/CapSense_Control.c ****     {
 261              		.loc 1 345 0
 262 0006 0025     		movs	r5, #0
 263 0008 13E0     		b	.L24
 264              	.LVL23:
 265              	.L26:
 347:Generated_Source\PSoC6/CapSense_Control.c ****         {
 266              		.loc 1 347 0
 267 000a 6B09     		lsrs	r3, r5, #5
 268 000c 0433     		adds	r3, r3, #4
 269 000e 9B00     		lsls	r3, r3, #2
 270 0010 0B4A     		ldr	r2, .L27+4
 271 0012 9B58     		ldr	r3, [r3, r2]
 272 0014 1F22     		movs	r2, #31
ARM GAS  C:\Users\Coal\AppData\Local\Temp\cck9DrYz.s 			page 24


 273 0016 2A40     		ands	r2, r5
 274 0018 D340     		lsrs	r3, r3, r2
 275 001a DB07     		lsls	r3, r3, #31
 276 001c 07D5     		bpl	.L25
 353:Generated_Source\PSoC6/CapSense_Control.c ****                     CapSense_DpProcessCsdWidgetStatus(wdgtId, ptrFlashWdgt);
 277              		.loc 1 353 0
 278 001e 3000     		movs	r0, r6
 279 0020 FFF7FEFF 		bl	CapSense_DpProcessCsdWidgetRawCounts
 280              	.LVL24:
 281 0024 0400     		movs	r4, r0
 282              	.LVL25:
 354:Generated_Source\PSoC6/CapSense_Control.c ****                     break;
 283              		.loc 1 354 0
 284 0026 3100     		movs	r1, r6
 285 0028 2800     		movs	r0, r5
 286              	.LVL26:
 287 002a FFF7FEFF 		bl	CapSense_DpProcessCsdWidgetStatus
 288              	.LVL27:
 289              	.L25:
 379:Generated_Source\PSoC6/CapSense_Control.c ****     }
 290              		.loc 1 379 0 discriminator 2
 291 002e 1C36     		adds	r6, r6, #28
 292              	.LVL28:
 345:Generated_Source\PSoC6/CapSense_Control.c ****     {
 293              		.loc 1 345 0 discriminator 2
 294 0030 0135     		adds	r5, r5, #1
 295              	.LVL29:
 296              	.L24:
 345:Generated_Source\PSoC6/CapSense_Control.c ****     {
 297              		.loc 1 345 0 is_stmt 0 discriminator 1
 298 0032 092D     		cmp	r5, #9
 299 0034 E9D9     		bls	.L26
 382:Generated_Source\PSoC6/CapSense_Control.c **** 
 300              		.loc 1 382 0 is_stmt 1
 301 0036 2000     		movs	r0, r4
 302              		@ sp needed
 303              	.LVL30:
 304              	.LVL31:
 305              	.LVL32:
 306 0038 70BD     		pop	{r4, r5, r6, pc}
 307              	.L28:
 308 003a C046     		.align	2
 309              	.L27:
 310 003c 00000000 		.word	CapSense_dsFlash
 311 0040 00000000 		.word	CapSense_dsRam
 312              		.cfi_endproc
 313              	.LFE170:
 314              		.size	CapSense_ProcessAllWidgets, .-CapSense_ProcessAllWidgets
 315              		.section	.text.CapSense_ProcessWidget,"ax",%progbits
 316              		.align	2
 317              		.global	CapSense_ProcessWidget
 318              		.code	16
 319              		.thumb_func
 320              		.type	CapSense_ProcessWidget, %function
 321              	CapSense_ProcessWidget:
 322              	.LFB171:
 426:Generated_Source\PSoC6/CapSense_Control.c ****     cy_status result = CY_RET_SUCCESS;
ARM GAS  C:\Users\Coal\AppData\Local\Temp\cck9DrYz.s 			page 25


 323              		.loc 1 426 0
 324              		.cfi_startproc
 325              		@ args = 0, pretend = 0, frame = 0
 326              		@ frame_needed = 0, uses_anonymous_args = 0
 327              	.LVL33:
 328 0000 70B5     		push	{r4, r5, r6, lr}
 329              		.cfi_def_cfa_offset 16
 330              		.cfi_offset 4, -16
 331              		.cfi_offset 5, -12
 332              		.cfi_offset 6, -8
 333              		.cfi_offset 14, -4
 334 0002 0500     		movs	r5, r0
 335              	.LVL34:
 430:Generated_Source\PSoC6/CapSense_Control.c ****     {
 336              		.loc 1 430 0
 337 0004 0928     		cmp	r0, #9
 338 0006 01D8     		bhi	.L33
 427:Generated_Source\PSoC6/CapSense_Control.c ****     CapSense_FLASH_WD_STRUCT const *ptrFlashWdgt;
 339              		.loc 1 427 0
 340 0008 0024     		movs	r4, #0
 341 000a 00E0     		b	.L30
 342              	.L33:
 432:Generated_Source\PSoC6/CapSense_Control.c ****     }
 343              		.loc 1 432 0
 344 000c 0124     		movs	r4, #1
 345              	.L30:
 346              	.LVL35:
 435:Generated_Source\PSoC6/CapSense_Control.c ****     {
 347              		.loc 1 435 0
 348 000e 002C     		cmp	r4, #0
 349 0010 0AD1     		bne	.L31
 435:Generated_Source\PSoC6/CapSense_Control.c ****     {
 350              		.loc 1 435 0 is_stmt 0 discriminator 1
 351 0012 6B09     		lsrs	r3, r5, #5
 352 0014 0433     		adds	r3, r3, #4
 353 0016 9B00     		lsls	r3, r3, #2
 354 0018 0C4A     		ldr	r2, .L35
 355 001a 9B58     		ldr	r3, [r3, r2]
 356 001c 1F22     		movs	r2, #31
 357 001e 2A40     		ands	r2, r5
 358 0020 D340     		lsrs	r3, r3, r2
 359 0022 DB07     		lsls	r3, r3, #31
 360 0024 00D4     		bmi	.L31
 437:Generated_Source\PSoC6/CapSense_Control.c ****     }
 361              		.loc 1 437 0 is_stmt 1
 362 0026 1134     		adds	r4, r4, #17
 363              	.LVL36:
 364              	.L31:
 440:Generated_Source\PSoC6/CapSense_Control.c ****     {
 365              		.loc 1 440 0
 366 0028 002C     		cmp	r4, #0
 367 002a 0CD1     		bne	.L32
 442:Generated_Source\PSoC6/CapSense_Control.c **** 
 368              		.loc 1 442 0
 369 002c EB00     		lsls	r3, r5, #3
 370 002e 5B1B     		subs	r3, r3, r5
 371 0030 9E00     		lsls	r6, r3, #2
ARM GAS  C:\Users\Coal\AppData\Local\Temp\cck9DrYz.s 			page 26


 372 0032 074B     		ldr	r3, .L35+4
 373 0034 F618     		adds	r6, r6, r3
 374              	.LVL37:
 448:Generated_Source\PSoC6/CapSense_Control.c ****                 CapSense_DpProcessCsdWidgetStatus(widgetId, ptrFlashWdgt);
 375              		.loc 1 448 0
 376 0036 3000     		movs	r0, r6
 377              	.LVL38:
 378 0038 FFF7FEFF 		bl	CapSense_DpProcessCsdWidgetRawCounts
 379              	.LVL39:
 380 003c 0400     		movs	r4, r0
 381              	.LVL40:
 449:Generated_Source\PSoC6/CapSense_Control.c ****                 break;
 382              		.loc 1 449 0
 383 003e 3100     		movs	r1, r6
 384 0040 2800     		movs	r0, r5
 385              	.LVL41:
 386 0042 FFF7FEFF 		bl	CapSense_DpProcessCsdWidgetStatus
 387              	.LVL42:
 388              	.L32:
 474:Generated_Source\PSoC6/CapSense_Control.c **** 
 389              		.loc 1 474 0
 390 0046 2000     		movs	r0, r4
 391              		@ sp needed
 392              	.LVL43:
 393              	.LVL44:
 394 0048 70BD     		pop	{r4, r5, r6, pc}
 395              	.L36:
 396 004a C046     		.align	2
 397              	.L35:
 398 004c 00000000 		.word	CapSense_dsRam
 399 0050 00000000 		.word	CapSense_dsFlash
 400              		.cfi_endproc
 401              	.LFE171:
 402              		.size	CapSense_ProcessWidget, .-CapSense_ProcessWidget
 403              		.section	.text.CapSense_ProcessWidgetExt,"ax",%progbits
 404              		.align	2
 405              		.global	CapSense_ProcessWidgetExt
 406              		.code	16
 407              		.thumb_func
 408              		.type	CapSense_ProcessWidgetExt, %function
 409              	CapSense_ProcessWidgetExt:
 410              	.LFB172:
 540:Generated_Source\PSoC6/CapSense_Control.c ****     uint32 snsCount;
 411              		.loc 1 540 0
 412              		.cfi_startproc
 413              		@ args = 0, pretend = 0, frame = 16
 414              		@ frame_needed = 0, uses_anonymous_args = 0
 415              	.LVL45:
 416 0000 F0B5     		push	{r4, r5, r6, r7, lr}
 417              		.cfi_def_cfa_offset 20
 418              		.cfi_offset 4, -20
 419              		.cfi_offset 5, -16
 420              		.cfi_offset 6, -12
 421              		.cfi_offset 7, -8
 422              		.cfi_offset 14, -4
 423 0002 85B0     		sub	sp, sp, #20
 424              		.cfi_def_cfa_offset 40
ARM GAS  C:\Users\Coal\AppData\Local\Temp\cck9DrYz.s 			page 27


 425 0004 0600     		movs	r6, r0
 426 0006 0291     		str	r1, [sp, #8]
 427              	.LVL46:
 551:Generated_Source\PSoC6/CapSense_Control.c ****     {
 428              		.loc 1 551 0
 429 0008 0928     		cmp	r0, #9
 430 000a 1FD8     		bhi	.L41
 553:Generated_Source\PSoC6/CapSense_Control.c ****         snsCount = CapSense_GET_SNS_CNT_BY_PTR(ptrFlashWdgt);
 431              		.loc 1 553 0
 432 000c C300     		lsls	r3, r0, #3
 433 000e 1B1A     		subs	r3, r3, r0
 434 0010 9A00     		lsls	r2, r3, #2
 435 0012 114B     		ldr	r3, .L42
 436 0014 D518     		adds	r5, r2, r3
 437              	.LVL47:
 554:Generated_Source\PSoC6/CapSense_Control.c ****         ptrSnsTmp = ptrFlashWdgt->ptr2SnsRam;
 438              		.loc 1 554 0
 439 0016 2B8B     		ldrh	r3, [r5, #24]
 440              	.LVL48:
 555:Generated_Source\PSoC6/CapSense_Control.c ****         fltrHistV.ptr = ptrFlashWdgt->ptr2FltrHistory;
 441              		.loc 1 555 0
 442 0018 AF68     		ldr	r7, [r5, #8]
 443              	.LVL49:
 556:Generated_Source\PSoC6/CapSense_Control.c **** 
 444              		.loc 1 556 0
 445 001a EA68     		ldr	r2, [r5, #12]
 446              	.LVL50:
 447 001c 0392     		str	r2, [sp, #12]
 542:Generated_Source\PSoC6/CapSense_Control.c ****     CapSense_FLASH_WD_STRUCT const *ptrFlashWdgt;
 448              		.loc 1 542 0
 449 001e 0122     		movs	r2, #1
 450              	.LVL51:
 451 0020 0192     		str	r2, [sp, #4]
 452 0022 08E0     		b	.L39
 453              	.LVL52:
 454              	.L40:
 571:Generated_Source\PSoC6/CapSense_Control.c **** 
 455              		.loc 1 571 0
 456 0024 029B     		ldr	r3, [sp, #8]
 457 0026 039A     		ldr	r2, [sp, #12]
 458 0028 3900     		movs	r1, r7
 459 002a 2800     		movs	r0, r5
 460 002c FFF7FEFF 		bl	CapSense_DpProcessCsdSensorRawCountsExt
 461              	.LVL53:
 462 0030 0190     		str	r0, [sp, #4]
 463              	.LVL54:
 581:Generated_Source\PSoC6/CapSense_Control.c ****                     CapSense_INC_FLTR_OBJ_VARIANT(isProxWdgt, fltrHistV);
 464              		.loc 1 581 0
 465 0032 0A37     		adds	r7, r7, #10
 466              	.LVL55:
 569:Generated_Source\PSoC6/CapSense_Control.c ****                 {
 467              		.loc 1 569 0
 468 0034 2300     		movs	r3, r4
 469              	.LVL56:
 470              	.L39:
 471 0036 5C1E     		subs	r4, r3, #1
 472              	.LVL57:
ARM GAS  C:\Users\Coal\AppData\Local\Temp\cck9DrYz.s 			page 28


 473 0038 002B     		cmp	r3, #0
 474 003a F3D1     		bne	.L40
 585:Generated_Source\PSoC6/CapSense_Control.c ****                 {
 475              		.loc 1 585 0
 476 003c 029B     		ldr	r3, [sp, #8]
 477 003e 9B06     		lsls	r3, r3, #26
 478 0040 06D5     		bpl	.L38
 587:Generated_Source\PSoC6/CapSense_Control.c ****                 }
 479              		.loc 1 587 0
 480 0042 2900     		movs	r1, r5
 481 0044 3000     		movs	r0, r6
 482 0046 FFF7FEFF 		bl	CapSense_DpProcessCsdWidgetStatus
 483              	.LVL58:
 484 004a 01E0     		b	.L38
 485              	.LVL59:
 486              	.L41:
 542:Generated_Source\PSoC6/CapSense_Control.c ****     CapSense_FLASH_WD_STRUCT const *ptrFlashWdgt;
 487              		.loc 1 542 0
 488 004c 0123     		movs	r3, #1
 489 004e 0193     		str	r3, [sp, #4]
 490              	.LVL60:
 491              	.L38:
 643:Generated_Source\PSoC6/CapSense_Control.c **** 
 492              		.loc 1 643 0
 493 0050 0198     		ldr	r0, [sp, #4]
 494 0052 05B0     		add	sp, sp, #20
 495              		@ sp needed
 496              	.LVL61:
 497 0054 F0BD     		pop	{r4, r5, r6, r7, pc}
 498              	.L43:
 499 0056 C046     		.align	2
 500              	.L42:
 501 0058 00000000 		.word	CapSense_dsFlash
 502              		.cfi_endproc
 503              	.LFE172:
 504              		.size	CapSense_ProcessWidgetExt, .-CapSense_ProcessWidgetExt
 505              		.section	.text.CapSense_ProcessSensorExt,"ax",%progbits
 506              		.align	2
 507              		.global	CapSense_ProcessSensorExt
 508              		.code	16
 509              		.thumb_func
 510              		.type	CapSense_ProcessSensorExt, %function
 511              	CapSense_ProcessSensorExt:
 512              	.LFB173:
 709:Generated_Source\PSoC6/CapSense_Control.c ****     cy_status result = CY_RET_BAD_PARAM;
 513              		.loc 1 709 0
 514              		.cfi_startproc
 515              		@ args = 0, pretend = 0, frame = 0
 516              		@ frame_needed = 0, uses_anonymous_args = 0
 517              	.LVL62:
 518 0000 70B5     		push	{r4, r5, r6, lr}
 519              		.cfi_def_cfa_offset 16
 520              		.cfi_offset 4, -16
 521              		.cfi_offset 5, -12
 522              		.cfi_offset 6, -8
 523              		.cfi_offset 14, -4
 524              	.LVL63:
ARM GAS  C:\Users\Coal\AppData\Local\Temp\cck9DrYz.s 			page 29


 715:Generated_Source\PSoC6/CapSense_Control.c ****     {
 525              		.loc 1 715 0
 526 0002 0928     		cmp	r0, #9
 527 0004 17D8     		bhi	.L46
 715:Generated_Source\PSoC6/CapSense_Control.c ****     {
 528              		.loc 1 715 0 is_stmt 0 discriminator 1
 529 0006 C500     		lsls	r5, r0, #3
 530 0008 2D1A     		subs	r5, r5, r0
 531 000a AC00     		lsls	r4, r5, #2
 532 000c 0C4B     		ldr	r3, .L48
 533 000e 1C19     		adds	r4, r3, r4
 534 0010 238B     		ldrh	r3, [r4, #24]
 535 0012 8B42     		cmp	r3, r1
 536 0014 11D9     		bls	.L47
 537              	.LVL64:
 719:Generated_Source\PSoC6/CapSense_Control.c ****         fltrHistV.ptr = ptrFlashWdgt->ptr2FltrHistory;
 538              		.loc 1 719 0 is_stmt 1
 539 0016 C300     		lsls	r3, r0, #3
 540 0018 1D1A     		subs	r5, r3, r0
 541 001a AC00     		lsls	r4, r5, #2
 542 001c 084D     		ldr	r5, .L48
 543 001e 6419     		adds	r4, r4, r5
 544              	.LVL65:
 721:Generated_Source\PSoC6/CapSense_Control.c ****         ptrSnsTmp += sensorId;
 545              		.loc 1 721 0
 546 0020 A068     		ldr	r0, [r4, #8]
 547              	.LVL66:
 722:Generated_Source\PSoC6/CapSense_Control.c **** 
 548              		.loc 1 722 0
 549 0022 8B00     		lsls	r3, r1, #2
 550 0024 5918     		adds	r1, r3, r1
 551              	.LVL67:
 552 0026 4B00     		lsls	r3, r1, #1
 553 0028 C118     		adds	r1, r0, r3
 554              	.LVL68:
 745:Generated_Source\PSoC6/CapSense_Control.c ****                 break;
 555              		.loc 1 745 0
 556 002a 1300     		movs	r3, r2
 557 002c E268     		ldr	r2, [r4, #12]
 558              	.LVL69:
 559 002e 2000     		movs	r0, r4
 560 0030 FFF7FEFF 		bl	CapSense_DpProcessCsdSensorRawCountsExt
 561              	.LVL70:
 746:Generated_Source\PSoC6/CapSense_Control.c ****         #endif /* #if (0u != CapSense_TOTAL_CSD_WIDGETS) */
 562              		.loc 1 746 0
 563 0034 02E0     		b	.L45
 564              	.LVL71:
 565              	.L46:
 710:Generated_Source\PSoC6/CapSense_Control.c ****     CapSense_FLASH_WD_STRUCT const *ptrFlashWdgt;
 566              		.loc 1 710 0
 567 0036 0120     		movs	r0, #1
 568              	.LVL72:
 569 0038 00E0     		b	.L45
 570              	.LVL73:
 571              	.L47:
 572 003a 0120     		movs	r0, #1
 573              	.LVL74:
ARM GAS  C:\Users\Coal\AppData\Local\Temp\cck9DrYz.s 			page 30


 574              	.L45:
 776:Generated_Source\PSoC6/CapSense_Control.c **** 
 575              		.loc 1 776 0
 576              		@ sp needed
 577 003c 70BD     		pop	{r4, r5, r6, pc}
 578              	.L49:
 579 003e C046     		.align	2
 580              	.L48:
 581 0040 00000000 		.word	CapSense_dsFlash
 582              		.cfi_endproc
 583              	.LFE173:
 584              		.size	CapSense_ProcessSensorExt, .-CapSense_ProcessSensorExt
 585              		.section	.text.CapSense_Sleep,"ax",%progbits
 586              		.align	2
 587              		.global	CapSense_Sleep
 588              		.code	16
 589              		.thumb_func
 590              		.type	CapSense_Sleep, %function
 591              	CapSense_Sleep:
 592              	.LFB174:
 791:Generated_Source\PSoC6/CapSense_Control.c **** }
 593              		.loc 1 791 0
 594              		.cfi_startproc
 595              		@ args = 0, pretend = 0, frame = 0
 596              		@ frame_needed = 0, uses_anonymous_args = 0
 597              		@ link register save eliminated.
 792:Generated_Source\PSoC6/CapSense_Control.c **** 
 598              		.loc 1 792 0
 599              		@ sp needed
 600 0000 7047     		bx	lr
 601              		.cfi_endproc
 602              	.LFE174:
 603              		.size	CapSense_Sleep, .-CapSense_Sleep
 604 0002 C046     		.section	.text.CapSense_Wakeup,"ax",%progbits
 605              		.align	2
 606              		.global	CapSense_Wakeup
 607              		.code	16
 608              		.thumb_func
 609              		.type	CapSense_Wakeup, %function
 610              	CapSense_Wakeup:
 611              	.LFB175:
 808:Generated_Source\PSoC6/CapSense_Control.c ****     #if(CapSense_BLOCK_ANALOG_WAKEUP_DELAY_US > 0uL)
 612              		.loc 1 808 0
 613              		.cfi_startproc
 614              		@ args = 0, pretend = 0, frame = 0
 615              		@ frame_needed = 0, uses_anonymous_args = 0
 616              		@ link register save eliminated.
 812:Generated_Source\PSoC6/CapSense_Control.c **** 
 617              		.loc 1 812 0
 618              		@ sp needed
 619 0000 7047     		bx	lr
 620              		.cfi_endproc
 621              	.LFE175:
 622              		.size	CapSense_Wakeup, .-CapSense_Wakeup
 623 0002 C046     		.section	.text.CapSense_DeepSleepCallback,"ax",%progbits
 624              		.align	2
 625              		.global	CapSense_DeepSleepCallback
ARM GAS  C:\Users\Coal\AppData\Local\Temp\cck9DrYz.s 			page 31


 626              		.code	16
 627              		.thumb_func
 628              		.type	CapSense_DeepSleepCallback, %function
 629              	CapSense_DeepSleepCallback:
 630              	.LFB176:
 855:Generated_Source\PSoC6/CapSense_Control.c ****     return(CapSense_SwitchPowerModeCallback(callbackParams));
 631              		.loc 1 855 0
 632              		.cfi_startproc
 633              		@ args = 0, pretend = 0, frame = 0
 634              		@ frame_needed = 0, uses_anonymous_args = 0
 635              	.LVL75:
 636 0000 10B5     		push	{r4, lr}
 637              		.cfi_def_cfa_offset 8
 638              		.cfi_offset 4, -8
 639              		.cfi_offset 14, -4
 856:Generated_Source\PSoC6/CapSense_Control.c **** }
 640              		.loc 1 856 0
 641 0002 FFF7FEFF 		bl	CapSense_SwitchPowerModeCallback
 642              	.LVL76:
 857:Generated_Source\PSoC6/CapSense_Control.c **** 
 643              		.loc 1 857 0
 644              		@ sp needed
 645 0006 10BD     		pop	{r4, pc}
 646              		.cfi_endproc
 647              	.LFE176:
 648              		.size	CapSense_DeepSleepCallback, .-CapSense_DeepSleepCallback
 649              		.section	.text.CapSense_EnterLowPowerCallback,"ax",%progbits
 650              		.align	2
 651              		.global	CapSense_EnterLowPowerCallback
 652              		.code	16
 653              		.thumb_func
 654              		.type	CapSense_EnterLowPowerCallback, %function
 655              	CapSense_EnterLowPowerCallback:
 656              	.LFB177:
 900:Generated_Source\PSoC6/CapSense_Control.c ****     return(CapSense_SwitchPowerModeCallback(callbackParams));
 657              		.loc 1 900 0
 658              		.cfi_startproc
 659              		@ args = 0, pretend = 0, frame = 0
 660              		@ frame_needed = 0, uses_anonymous_args = 0
 661              	.LVL77:
 662 0000 10B5     		push	{r4, lr}
 663              		.cfi_def_cfa_offset 8
 664              		.cfi_offset 4, -8
 665              		.cfi_offset 14, -4
 901:Generated_Source\PSoC6/CapSense_Control.c **** }
 666              		.loc 1 901 0
 667 0002 FFF7FEFF 		bl	CapSense_SwitchPowerModeCallback
 668              	.LVL78:
 902:Generated_Source\PSoC6/CapSense_Control.c **** 
 669              		.loc 1 902 0
 670              		@ sp needed
 671 0006 10BD     		pop	{r4, pc}
 672              		.cfi_endproc
 673              	.LFE177:
 674              		.size	CapSense_EnterLowPowerCallback, .-CapSense_EnterLowPowerCallback
 675              		.section	.text.CapSense_ExitLowPowerCallback,"ax",%progbits
 676              		.align	2
ARM GAS  C:\Users\Coal\AppData\Local\Temp\cck9DrYz.s 			page 32


 677              		.global	CapSense_ExitLowPowerCallback
 678              		.code	16
 679              		.thumb_func
 680              		.type	CapSense_ExitLowPowerCallback, %function
 681              	CapSense_ExitLowPowerCallback:
 682              	.LFB178:
 945:Generated_Source\PSoC6/CapSense_Control.c ****     return(CapSense_SwitchPowerModeCallback(callbackParams));
 683              		.loc 1 945 0
 684              		.cfi_startproc
 685              		@ args = 0, pretend = 0, frame = 0
 686              		@ frame_needed = 0, uses_anonymous_args = 0
 687              	.LVL79:
 688 0000 10B5     		push	{r4, lr}
 689              		.cfi_def_cfa_offset 8
 690              		.cfi_offset 4, -8
 691              		.cfi_offset 14, -4
 946:Generated_Source\PSoC6/CapSense_Control.c **** }
 692              		.loc 1 946 0
 693 0002 FFF7FEFF 		bl	CapSense_SwitchPowerModeCallback
 694              	.LVL80:
 947:Generated_Source\PSoC6/CapSense_Control.c **** 
 695              		.loc 1 947 0
 696              		@ sp needed
 697 0006 10BD     		pop	{r4, pc}
 698              		.cfi_endproc
 699              	.LFE178:
 700              		.size	CapSense_ExitLowPowerCallback, .-CapSense_ExitLowPowerCallback
 701              		.bss
 702              		.set	.LANCHOR0,. + 0
 703              		.type	CapSense_InitVar, %object
 704              		.size	CapSense_InitVar, 1
 705              	CapSense_InitVar:
 706 0000 00       		.space	1
 707              		.text
 708              	.Letext0:
 709              		.file 2 "c:\\program files (x86)\\cypress\\psoc creator\\4.2\\psoc creator\\import\\gnu\\arm\\5.4.
 710              		.file 3 "c:\\program files (x86)\\cypress\\psoc creator\\4.2\\psoc creator\\import\\gnu\\arm\\5.4.
 711              		.file 4 "Generated_Source\\PSoC6\\pdl\\drivers/peripheral/syslib/cy_syslib.h"
 712              		.file 5 "Generated_Source\\PSoC6\\pdl\\drivers/peripheral/syspm/cy_syspm.h"
 713              		.file 6 "Generated_Source\\PSoC6\\CapSense_Configuration.h"
 714              		.file 7 "Generated_Source\\PSoC6\\CapSense_Structure.h"
 715              		.file 8 "Generated_Source\\PSoC6\\CapSense_Sensing.h"
 716              		.file 9 "Generated_Source\\PSoC6\\CapSense_Tuner.h"
 717              		.file 10 "Generated_Source\\PSoC6\\CapSense_Processing.h"
 718              		.file 11 "Generated_Source\\PSoC6\\CapSense_Filter.h"