ARM GAS  C:\Users\User\AppData\Local\Temp\ccRgzybA.s 			page 1


   1              		.syntax unified
   2              		.cpu cortex-m0plus
   3              		.fpu softvfp
   4              		.eabi_attribute 20, 1
   5              		.eabi_attribute 21, 1
   6              		.eabi_attribute 23, 3
   7              		.eabi_attribute 24, 1
   8              		.eabi_attribute 25, 1
   9              		.eabi_attribute 26, 1
  10              		.eabi_attribute 30, 1
  11              		.eabi_attribute 34, 0
  12              		.eabi_attribute 18, 4
  13              		.thumb
  14              		.syntax unified
  15              		.file	"CapSense_Structure.c"
  16              		.text
  17              	.Ltext0:
  18              		.cfi_sections	.debug_frame
  19              		.section	.text.DsParseParamId,"ax",%progbits
  20              		.align	2
  21              		.code	16
  22              		.thumb_func
  23              		.type	DsParseParamId, %function
  24              	DsParseParamId:
  25              	.LFB37:
  26              		.file 1 "Generated_Source\\PSoC6\\CapSense_Structure.c"
   1:Generated_Source\PSoC6/CapSense_Structure.c **** /***************************************************************************//**
   2:Generated_Source\PSoC6/CapSense_Structure.c **** * \file CapSense_Structure.c
   3:Generated_Source\PSoC6/CapSense_Structure.c **** * \version 2.0
   4:Generated_Source\PSoC6/CapSense_Structure.c **** *
   5:Generated_Source\PSoC6/CapSense_Structure.c **** * \brief
   6:Generated_Source\PSoC6/CapSense_Structure.c **** *   This file defines the data structure global variables and provides implementation
   7:Generated_Source\PSoC6/CapSense_Structure.c **** *   for the high-level and low-level APIs of the Data Structure module.
   8:Generated_Source\PSoC6/CapSense_Structure.c **** *
   9:Generated_Source\PSoC6/CapSense_Structure.c **** * \see CapSense v2.0 Datasheet
  10:Generated_Source\PSoC6/CapSense_Structure.c **** *
  11:Generated_Source\PSoC6/CapSense_Structure.c **** *//*****************************************************************************
  12:Generated_Source\PSoC6/CapSense_Structure.c **** * Copyright (2016-2017), Cypress Semiconductor Corporation.
  13:Generated_Source\PSoC6/CapSense_Structure.c **** ********************************************************************************
  14:Generated_Source\PSoC6/CapSense_Structure.c **** * This software is owned by Cypress Semiconductor Corporation (Cypress) and is
  15:Generated_Source\PSoC6/CapSense_Structure.c **** * protected by and subject to worldwide patent protection (United States and
  16:Generated_Source\PSoC6/CapSense_Structure.c **** * foreign), United States copyright laws and international treaty provisions.
  17:Generated_Source\PSoC6/CapSense_Structure.c **** * Cypress hereby grants to licensee a personal, non-exclusive, non-transferable
  18:Generated_Source\PSoC6/CapSense_Structure.c **** * license to copy, use, modify, create derivative works of, and compile the
  19:Generated_Source\PSoC6/CapSense_Structure.c **** * Cypress Source Code and derivative works for the sole purpose of creating
  20:Generated_Source\PSoC6/CapSense_Structure.c **** * custom software in support of licensee product to be used only in conjunction
  21:Generated_Source\PSoC6/CapSense_Structure.c **** * with a Cypress integrated circuit as specified in the applicable agreement.
  22:Generated_Source\PSoC6/CapSense_Structure.c **** * Any reproduction, modification, translation, compilation, or representation of
  23:Generated_Source\PSoC6/CapSense_Structure.c **** * this software except as specified above is prohibited without the express
  24:Generated_Source\PSoC6/CapSense_Structure.c **** * written permission of Cypress.
  25:Generated_Source\PSoC6/CapSense_Structure.c **** *
  26:Generated_Source\PSoC6/CapSense_Structure.c **** * Disclaimer: CYPRESS MAKES NO WARRANTY OF ANY KIND, EXPRESS OR IMPLIED, WITH
  27:Generated_Source\PSoC6/CapSense_Structure.c **** * REGARD TO THIS MATERIAL, INCLUDING, BUT NOT LIMITED TO, THE IMPLIED
  28:Generated_Source\PSoC6/CapSense_Structure.c **** * WARRANTIES OF MERCHANTABILITY AND FITNESS FOR A PARTICULAR PURPOSE.
  29:Generated_Source\PSoC6/CapSense_Structure.c **** * Cypress reserves the right to make changes without further notice to the
  30:Generated_Source\PSoC6/CapSense_Structure.c **** * materials described herein. Cypress does not assume any liability arising out
  31:Generated_Source\PSoC6/CapSense_Structure.c **** * of the application or use of any product or circuit described herein. Cypress
ARM GAS  C:\Users\User\AppData\Local\Temp\ccRgzybA.s 			page 2


  32:Generated_Source\PSoC6/CapSense_Structure.c **** * does not authorize its products for use as critical components in life-support
  33:Generated_Source\PSoC6/CapSense_Structure.c **** * systems where a malfunction or failure may reasonably be expected to result in
  34:Generated_Source\PSoC6/CapSense_Structure.c **** * significant injury to the user. The inclusion of Cypress' product in a life-
  35:Generated_Source\PSoC6/CapSense_Structure.c **** * support systems application implies that the manufacturer assumes all risk of
  36:Generated_Source\PSoC6/CapSense_Structure.c **** * such use and in doing so indemnifies Cypress against all charges. Use may be
  37:Generated_Source\PSoC6/CapSense_Structure.c **** * limited by and subject to the applicable Cypress software license agreement.
  38:Generated_Source\PSoC6/CapSense_Structure.c **** *******************************************************************************/
  39:Generated_Source\PSoC6/CapSense_Structure.c **** 
  40:Generated_Source\PSoC6/CapSense_Structure.c **** #include "syslib/cy_syslib.h"
  41:Generated_Source\PSoC6/CapSense_Structure.c **** #include <stddef.h>
  42:Generated_Source\PSoC6/CapSense_Structure.c **** #include <string.h>
  43:Generated_Source\PSoC6/CapSense_Structure.c **** #include "cyfitter_gpio.h"
  44:Generated_Source\PSoC6/CapSense_Structure.c **** 
  45:Generated_Source\PSoC6/CapSense_Structure.c **** #include "CapSense_Structure.h"
  46:Generated_Source\PSoC6/CapSense_Structure.c **** #include "CapSense_Configuration.h"
  47:Generated_Source\PSoC6/CapSense_Structure.c **** 
  48:Generated_Source\PSoC6/CapSense_Structure.c **** #if (0u != CapSense_ADC_EN)
  49:Generated_Source\PSoC6/CapSense_Structure.c ****     #include "CapSense_Adc.h"
  50:Generated_Source\PSoC6/CapSense_Structure.c **** #endif /* (0u != CapSense_ADC_EN) */
  51:Generated_Source\PSoC6/CapSense_Structure.c **** 
  52:Generated_Source\PSoC6/CapSense_Structure.c **** #if (CapSense_ENABLE == CapSense_SELF_TEST_EN)
  53:Generated_Source\PSoC6/CapSense_Structure.c ****     #include "CapSense_SelfTest.h"
  54:Generated_Source\PSoC6/CapSense_Structure.c **** #endif
  55:Generated_Source\PSoC6/CapSense_Structure.c **** 
  56:Generated_Source\PSoC6/CapSense_Structure.c **** #if (CapSense_ENABLE == CapSense_CENTROID_5X5_CSD_EN)
  57:Generated_Source\PSoC6/CapSense_Structure.c ****     #include "CapSense_AdvancedCentroid_LL.h"
  58:Generated_Source\PSoC6/CapSense_Structure.c **** #endif
  59:Generated_Source\PSoC6/CapSense_Structure.c **** 
  60:Generated_Source\PSoC6/CapSense_Structure.c **** #if (CapSense_ENABLE == CapSense_GES_GLOBAL_EN)
  61:Generated_Source\PSoC6/CapSense_Structure.c ****     #include "CapSense_Gesture.h"
  62:Generated_Source\PSoC6/CapSense_Structure.c **** #endif /* (CapSense_ENABLE == CapSense_GES_GLOBAL_EN) */
  63:Generated_Source\PSoC6/CapSense_Structure.c **** 
  64:Generated_Source\PSoC6/CapSense_Structure.c **** /*******************************************************************************
  65:Generated_Source\PSoC6/CapSense_Structure.c **** * Defines the RAM Data Structure variables and their init data in flash
  66:Generated_Source\PSoC6/CapSense_Structure.c **** *******************************************************************************/
  67:Generated_Source\PSoC6/CapSense_Structure.c **** /**
  68:Generated_Source\PSoC6/CapSense_Structure.c **** * \cond SECTION_GLOBAL_VARIABLES
  69:Generated_Source\PSoC6/CapSense_Structure.c **** * \addtogroup group_global_variables
  70:Generated_Source\PSoC6/CapSense_Structure.c **** * \{
  71:Generated_Source\PSoC6/CapSense_Structure.c **** */
  72:Generated_Source\PSoC6/CapSense_Structure.c **** 
  73:Generated_Source\PSoC6/CapSense_Structure.c **** /**
  74:Generated_Source\PSoC6/CapSense_Structure.c **** * The variable that contains the CapSense configuration, settings and
  75:Generated_Source\PSoC6/CapSense_Structure.c **** * scanning results. CapSense_dsRam represents RAM Data Structure.
  76:Generated_Source\PSoC6/CapSense_Structure.c **** */
  77:Generated_Source\PSoC6/CapSense_Structure.c **** CapSense_RAM_STRUCT CapSense_dsRam;
  78:Generated_Source\PSoC6/CapSense_Structure.c **** /** \}
  79:Generated_Source\PSoC6/CapSense_Structure.c **** * \endcond */
  80:Generated_Source\PSoC6/CapSense_Structure.c **** 
  81:Generated_Source\PSoC6/CapSense_Structure.c **** /*******************************************************************************
  82:Generated_Source\PSoC6/CapSense_Structure.c **** * Declares Widget's De-bounce Counters
  83:Generated_Source\PSoC6/CapSense_Structure.c **** *******************************************************************************/
  84:Generated_Source\PSoC6/CapSense_Structure.c **** static uint8 CapSense_debounceButton0[CapSense_BUTTON0_NUM_SENSORS];
  85:Generated_Source\PSoC6/CapSense_Structure.c **** static uint8 CapSense_debounceButton1[CapSense_BUTTON1_NUM_SENSORS];
  86:Generated_Source\PSoC6/CapSense_Structure.c **** static uint8 CapSense_debounceButton2[CapSense_BUTTON2_NUM_SENSORS];
  87:Generated_Source\PSoC6/CapSense_Structure.c **** static uint8 CapSense_debounceButton3[CapSense_BUTTON3_NUM_SENSORS];
  88:Generated_Source\PSoC6/CapSense_Structure.c **** static uint8 CapSense_debounceButton4[CapSense_BUTTON4_NUM_SENSORS];
ARM GAS  C:\Users\User\AppData\Local\Temp\ccRgzybA.s 			page 3


  89:Generated_Source\PSoC6/CapSense_Structure.c **** static uint8 CapSense_debounceButton5[CapSense_BUTTON5_NUM_SENSORS];
  90:Generated_Source\PSoC6/CapSense_Structure.c **** static uint8 CapSense_debounceButton6[CapSense_BUTTON6_NUM_SENSORS];
  91:Generated_Source\PSoC6/CapSense_Structure.c **** static uint8 CapSense_debounceButton7[CapSense_BUTTON7_NUM_SENSORS];
  92:Generated_Source\PSoC6/CapSense_Structure.c **** static uint8 CapSense_debounceButton8[CapSense_BUTTON8_NUM_SENSORS];
  93:Generated_Source\PSoC6/CapSense_Structure.c **** static uint8 CapSense_debounceButton9[CapSense_BUTTON9_NUM_SENSORS];
  94:Generated_Source\PSoC6/CapSense_Structure.c **** 
  95:Generated_Source\PSoC6/CapSense_Structure.c **** 
  96:Generated_Source\PSoC6/CapSense_Structure.c **** /*******************************************************************************
  97:Generated_Source\PSoC6/CapSense_Structure.c **** * Defines and initializes the Flash Data Structure
  98:Generated_Source\PSoC6/CapSense_Structure.c **** *******************************************************************************/
  99:Generated_Source\PSoC6/CapSense_Structure.c **** 
 100:Generated_Source\PSoC6/CapSense_Structure.c **** 
 101:Generated_Source\PSoC6/CapSense_Structure.c **** 
 102:Generated_Source\PSoC6/CapSense_Structure.c **** /**
 103:Generated_Source\PSoC6/CapSense_Structure.c **** * \cond SECTION_API_CONSTANTS
 104:Generated_Source\PSoC6/CapSense_Structure.c **** * \addtogroup group_api_constants
 105:Generated_Source\PSoC6/CapSense_Structure.c **** * \{
 106:Generated_Source\PSoC6/CapSense_Structure.c **** */
 107:Generated_Source\PSoC6/CapSense_Structure.c **** /**
 108:Generated_Source\PSoC6/CapSense_Structure.c **** * Constant for the FLASH Data Structure
 109:Generated_Source\PSoC6/CapSense_Structure.c **** */
 110:Generated_Source\PSoC6/CapSense_Structure.c **** const CapSense_FLASH_STRUCT CapSense_dsFlash =
 111:Generated_Source\PSoC6/CapSense_Structure.c **** {
 112:Generated_Source\PSoC6/CapSense_Structure.c ****     /* Flash Widget Initialization Data */
 113:Generated_Source\PSoC6/CapSense_Structure.c ****     {
 114:Generated_Source\PSoC6/CapSense_Structure.c ****         { /* Button0 */
 115:Generated_Source\PSoC6/CapSense_Structure.c ****             &CapSense_ioList[0u],
 116:Generated_Source\PSoC6/CapSense_Structure.c ****             (void *)&CapSense_dsRam.wdgtList.button0,
 117:Generated_Source\PSoC6/CapSense_Structure.c ****             CapSense_dsRam.snsList.button0,
 118:Generated_Source\PSoC6/CapSense_Structure.c ****             (void *)0u,
 119:Generated_Source\PSoC6/CapSense_Structure.c ****             CapSense_debounceButton0,
 120:Generated_Source\PSoC6/CapSense_Structure.c ****             CapSense_BUTTON0_STATIC_CONFIG,
 121:Generated_Source\PSoC6/CapSense_Structure.c ****             CapSense_BUTTON0_NUM_SENSORS,
 122:Generated_Source\PSoC6/CapSense_Structure.c ****             (uint8)CapSense_WD_BUTTON_E,
 123:Generated_Source\PSoC6/CapSense_Structure.c ****             CapSense_BUTTON0_NUM_SENSORS,
 124:Generated_Source\PSoC6/CapSense_Structure.c ****         },
 125:Generated_Source\PSoC6/CapSense_Structure.c ****         { /* Button1 */
 126:Generated_Source\PSoC6/CapSense_Structure.c ****             &CapSense_ioList[1u],
 127:Generated_Source\PSoC6/CapSense_Structure.c ****             (void *)&CapSense_dsRam.wdgtList.button1,
 128:Generated_Source\PSoC6/CapSense_Structure.c ****             CapSense_dsRam.snsList.button1,
 129:Generated_Source\PSoC6/CapSense_Structure.c ****             (void *)0u,
 130:Generated_Source\PSoC6/CapSense_Structure.c ****             CapSense_debounceButton1,
 131:Generated_Source\PSoC6/CapSense_Structure.c ****             CapSense_BUTTON1_STATIC_CONFIG,
 132:Generated_Source\PSoC6/CapSense_Structure.c ****             CapSense_BUTTON1_NUM_SENSORS,
 133:Generated_Source\PSoC6/CapSense_Structure.c ****             (uint8)CapSense_WD_BUTTON_E,
 134:Generated_Source\PSoC6/CapSense_Structure.c ****             CapSense_BUTTON1_NUM_SENSORS,
 135:Generated_Source\PSoC6/CapSense_Structure.c ****         },
 136:Generated_Source\PSoC6/CapSense_Structure.c ****         { /* Button2 */
 137:Generated_Source\PSoC6/CapSense_Structure.c ****             &CapSense_ioList[2u],
 138:Generated_Source\PSoC6/CapSense_Structure.c ****             (void *)&CapSense_dsRam.wdgtList.button2,
 139:Generated_Source\PSoC6/CapSense_Structure.c ****             CapSense_dsRam.snsList.button2,
 140:Generated_Source\PSoC6/CapSense_Structure.c ****             (void *)0u,
 141:Generated_Source\PSoC6/CapSense_Structure.c ****             CapSense_debounceButton2,
 142:Generated_Source\PSoC6/CapSense_Structure.c ****             CapSense_BUTTON2_STATIC_CONFIG,
 143:Generated_Source\PSoC6/CapSense_Structure.c ****             CapSense_BUTTON2_NUM_SENSORS,
 144:Generated_Source\PSoC6/CapSense_Structure.c ****             (uint8)CapSense_WD_BUTTON_E,
 145:Generated_Source\PSoC6/CapSense_Structure.c ****             CapSense_BUTTON2_NUM_SENSORS,
ARM GAS  C:\Users\User\AppData\Local\Temp\ccRgzybA.s 			page 4


 146:Generated_Source\PSoC6/CapSense_Structure.c ****         },
 147:Generated_Source\PSoC6/CapSense_Structure.c ****         { /* Button3 */
 148:Generated_Source\PSoC6/CapSense_Structure.c ****             &CapSense_ioList[3u],
 149:Generated_Source\PSoC6/CapSense_Structure.c ****             (void *)&CapSense_dsRam.wdgtList.button3,
 150:Generated_Source\PSoC6/CapSense_Structure.c ****             CapSense_dsRam.snsList.button3,
 151:Generated_Source\PSoC6/CapSense_Structure.c ****             (void *)0u,
 152:Generated_Source\PSoC6/CapSense_Structure.c ****             CapSense_debounceButton3,
 153:Generated_Source\PSoC6/CapSense_Structure.c ****             CapSense_BUTTON3_STATIC_CONFIG,
 154:Generated_Source\PSoC6/CapSense_Structure.c ****             CapSense_BUTTON3_NUM_SENSORS,
 155:Generated_Source\PSoC6/CapSense_Structure.c ****             (uint8)CapSense_WD_BUTTON_E,
 156:Generated_Source\PSoC6/CapSense_Structure.c ****             CapSense_BUTTON3_NUM_SENSORS,
 157:Generated_Source\PSoC6/CapSense_Structure.c ****         },
 158:Generated_Source\PSoC6/CapSense_Structure.c ****         { /* Button4 */
 159:Generated_Source\PSoC6/CapSense_Structure.c ****             &CapSense_ioList[4u],
 160:Generated_Source\PSoC6/CapSense_Structure.c ****             (void *)&CapSense_dsRam.wdgtList.button4,
 161:Generated_Source\PSoC6/CapSense_Structure.c ****             CapSense_dsRam.snsList.button4,
 162:Generated_Source\PSoC6/CapSense_Structure.c ****             (void *)0u,
 163:Generated_Source\PSoC6/CapSense_Structure.c ****             CapSense_debounceButton4,
 164:Generated_Source\PSoC6/CapSense_Structure.c ****             CapSense_BUTTON4_STATIC_CONFIG,
 165:Generated_Source\PSoC6/CapSense_Structure.c ****             CapSense_BUTTON4_NUM_SENSORS,
 166:Generated_Source\PSoC6/CapSense_Structure.c ****             (uint8)CapSense_WD_BUTTON_E,
 167:Generated_Source\PSoC6/CapSense_Structure.c ****             CapSense_BUTTON4_NUM_SENSORS,
 168:Generated_Source\PSoC6/CapSense_Structure.c ****         },
 169:Generated_Source\PSoC6/CapSense_Structure.c ****         { /* Button5 */
 170:Generated_Source\PSoC6/CapSense_Structure.c ****             &CapSense_ioList[5u],
 171:Generated_Source\PSoC6/CapSense_Structure.c ****             (void *)&CapSense_dsRam.wdgtList.button5,
 172:Generated_Source\PSoC6/CapSense_Structure.c ****             CapSense_dsRam.snsList.button5,
 173:Generated_Source\PSoC6/CapSense_Structure.c ****             (void *)0u,
 174:Generated_Source\PSoC6/CapSense_Structure.c ****             CapSense_debounceButton5,
 175:Generated_Source\PSoC6/CapSense_Structure.c ****             CapSense_BUTTON5_STATIC_CONFIG,
 176:Generated_Source\PSoC6/CapSense_Structure.c ****             CapSense_BUTTON5_NUM_SENSORS,
 177:Generated_Source\PSoC6/CapSense_Structure.c ****             (uint8)CapSense_WD_BUTTON_E,
 178:Generated_Source\PSoC6/CapSense_Structure.c ****             CapSense_BUTTON5_NUM_SENSORS,
 179:Generated_Source\PSoC6/CapSense_Structure.c ****         },
 180:Generated_Source\PSoC6/CapSense_Structure.c ****         { /* Button6 */
 181:Generated_Source\PSoC6/CapSense_Structure.c ****             &CapSense_ioList[6u],
 182:Generated_Source\PSoC6/CapSense_Structure.c ****             (void *)&CapSense_dsRam.wdgtList.button6,
 183:Generated_Source\PSoC6/CapSense_Structure.c ****             CapSense_dsRam.snsList.button6,
 184:Generated_Source\PSoC6/CapSense_Structure.c ****             (void *)0u,
 185:Generated_Source\PSoC6/CapSense_Structure.c ****             CapSense_debounceButton6,
 186:Generated_Source\PSoC6/CapSense_Structure.c ****             CapSense_BUTTON6_STATIC_CONFIG,
 187:Generated_Source\PSoC6/CapSense_Structure.c ****             CapSense_BUTTON6_NUM_SENSORS,
 188:Generated_Source\PSoC6/CapSense_Structure.c ****             (uint8)CapSense_WD_BUTTON_E,
 189:Generated_Source\PSoC6/CapSense_Structure.c ****             CapSense_BUTTON6_NUM_SENSORS,
 190:Generated_Source\PSoC6/CapSense_Structure.c ****         },
 191:Generated_Source\PSoC6/CapSense_Structure.c ****         { /* Button7 */
 192:Generated_Source\PSoC6/CapSense_Structure.c ****             &CapSense_ioList[7u],
 193:Generated_Source\PSoC6/CapSense_Structure.c ****             (void *)&CapSense_dsRam.wdgtList.button7,
 194:Generated_Source\PSoC6/CapSense_Structure.c ****             CapSense_dsRam.snsList.button7,
 195:Generated_Source\PSoC6/CapSense_Structure.c ****             (void *)0u,
 196:Generated_Source\PSoC6/CapSense_Structure.c ****             CapSense_debounceButton7,
 197:Generated_Source\PSoC6/CapSense_Structure.c ****             CapSense_BUTTON7_STATIC_CONFIG,
 198:Generated_Source\PSoC6/CapSense_Structure.c ****             CapSense_BUTTON7_NUM_SENSORS,
 199:Generated_Source\PSoC6/CapSense_Structure.c ****             (uint8)CapSense_WD_BUTTON_E,
 200:Generated_Source\PSoC6/CapSense_Structure.c ****             CapSense_BUTTON7_NUM_SENSORS,
 201:Generated_Source\PSoC6/CapSense_Structure.c ****         },
 202:Generated_Source\PSoC6/CapSense_Structure.c ****         { /* Button8 */
ARM GAS  C:\Users\User\AppData\Local\Temp\ccRgzybA.s 			page 5


 203:Generated_Source\PSoC6/CapSense_Structure.c ****             &CapSense_ioList[8u],
 204:Generated_Source\PSoC6/CapSense_Structure.c ****             (void *)&CapSense_dsRam.wdgtList.button8,
 205:Generated_Source\PSoC6/CapSense_Structure.c ****             CapSense_dsRam.snsList.button8,
 206:Generated_Source\PSoC6/CapSense_Structure.c ****             (void *)0u,
 207:Generated_Source\PSoC6/CapSense_Structure.c ****             CapSense_debounceButton8,
 208:Generated_Source\PSoC6/CapSense_Structure.c ****             CapSense_BUTTON8_STATIC_CONFIG,
 209:Generated_Source\PSoC6/CapSense_Structure.c ****             CapSense_BUTTON8_NUM_SENSORS,
 210:Generated_Source\PSoC6/CapSense_Structure.c ****             (uint8)CapSense_WD_BUTTON_E,
 211:Generated_Source\PSoC6/CapSense_Structure.c ****             CapSense_BUTTON8_NUM_SENSORS,
 212:Generated_Source\PSoC6/CapSense_Structure.c ****         },
 213:Generated_Source\PSoC6/CapSense_Structure.c ****         { /* Button9 */
 214:Generated_Source\PSoC6/CapSense_Structure.c ****             &CapSense_ioList[9u],
 215:Generated_Source\PSoC6/CapSense_Structure.c ****             (void *)&CapSense_dsRam.wdgtList.button9,
 216:Generated_Source\PSoC6/CapSense_Structure.c ****             CapSense_dsRam.snsList.button9,
 217:Generated_Source\PSoC6/CapSense_Structure.c ****             (void *)0u,
 218:Generated_Source\PSoC6/CapSense_Structure.c ****             CapSense_debounceButton9,
 219:Generated_Source\PSoC6/CapSense_Structure.c ****             CapSense_BUTTON9_STATIC_CONFIG,
 220:Generated_Source\PSoC6/CapSense_Structure.c ****             CapSense_BUTTON9_NUM_SENSORS,
 221:Generated_Source\PSoC6/CapSense_Structure.c ****             (uint8)CapSense_WD_BUTTON_E,
 222:Generated_Source\PSoC6/CapSense_Structure.c ****             CapSense_BUTTON9_NUM_SENSORS,
 223:Generated_Source\PSoC6/CapSense_Structure.c ****         },
 224:Generated_Source\PSoC6/CapSense_Structure.c ****     },
 225:Generated_Source\PSoC6/CapSense_Structure.c **** };
 226:Generated_Source\PSoC6/CapSense_Structure.c **** 
 227:Generated_Source\PSoC6/CapSense_Structure.c **** /**
 228:Generated_Source\PSoC6/CapSense_Structure.c **** * The array of the pointers to the electrode specific register.
 229:Generated_Source\PSoC6/CapSense_Structure.c **** */
 230:Generated_Source\PSoC6/CapSense_Structure.c **** const CapSense_FLASH_IO_STRUCT CapSense_ioList[CapSense_TOTAL_ELECTRODES] =
 231:Generated_Source\PSoC6/CapSense_Structure.c **** {
 232:Generated_Source\PSoC6/CapSense_Structure.c ****     { /* 0: Button0_Sns0 */
 233:Generated_Source\PSoC6/CapSense_Structure.c ****         CapSense_Sns_0_PORT,
 234:Generated_Source\PSoC6/CapSense_Structure.c ****         (uint8)CapSense_Sns_0_NUM,
 235:Generated_Source\PSoC6/CapSense_Structure.c ****     },
 236:Generated_Source\PSoC6/CapSense_Structure.c ****     { /* 1: Button1_Sns0 */
 237:Generated_Source\PSoC6/CapSense_Structure.c ****         CapSense_Sns_1_PORT,
 238:Generated_Source\PSoC6/CapSense_Structure.c ****         (uint8)CapSense_Sns_1_NUM,
 239:Generated_Source\PSoC6/CapSense_Structure.c ****     },
 240:Generated_Source\PSoC6/CapSense_Structure.c ****     { /* 2: Button2_Sns0 */
 241:Generated_Source\PSoC6/CapSense_Structure.c ****         CapSense_Sns_2_PORT,
 242:Generated_Source\PSoC6/CapSense_Structure.c ****         (uint8)CapSense_Sns_2_NUM,
 243:Generated_Source\PSoC6/CapSense_Structure.c ****     },
 244:Generated_Source\PSoC6/CapSense_Structure.c ****     { /* 3: Button3_Sns0 */
 245:Generated_Source\PSoC6/CapSense_Structure.c ****         CapSense_Sns_3_PORT,
 246:Generated_Source\PSoC6/CapSense_Structure.c ****         (uint8)CapSense_Sns_3_NUM,
 247:Generated_Source\PSoC6/CapSense_Structure.c ****     },
 248:Generated_Source\PSoC6/CapSense_Structure.c ****     { /* 4: Button4_Sns0 */
 249:Generated_Source\PSoC6/CapSense_Structure.c ****         CapSense_Sns_4_PORT,
 250:Generated_Source\PSoC6/CapSense_Structure.c ****         (uint8)CapSense_Sns_4_NUM,
 251:Generated_Source\PSoC6/CapSense_Structure.c ****     },
 252:Generated_Source\PSoC6/CapSense_Structure.c ****     { /* 5: Button5_Sns0 */
 253:Generated_Source\PSoC6/CapSense_Structure.c ****         CapSense_Sns_5_PORT,
 254:Generated_Source\PSoC6/CapSense_Structure.c ****         (uint8)CapSense_Sns_5_NUM,
 255:Generated_Source\PSoC6/CapSense_Structure.c ****     },
 256:Generated_Source\PSoC6/CapSense_Structure.c ****     { /* 6: Button6_Sns0 */
 257:Generated_Source\PSoC6/CapSense_Structure.c ****         CapSense_Sns_6_PORT,
 258:Generated_Source\PSoC6/CapSense_Structure.c ****         (uint8)CapSense_Sns_6_NUM,
 259:Generated_Source\PSoC6/CapSense_Structure.c ****     },
ARM GAS  C:\Users\User\AppData\Local\Temp\ccRgzybA.s 			page 6


 260:Generated_Source\PSoC6/CapSense_Structure.c ****     { /* 7: Button7_Sns0 */
 261:Generated_Source\PSoC6/CapSense_Structure.c ****         CapSense_Sns_7_PORT,
 262:Generated_Source\PSoC6/CapSense_Structure.c ****         (uint8)CapSense_Sns_7_NUM,
 263:Generated_Source\PSoC6/CapSense_Structure.c ****     },
 264:Generated_Source\PSoC6/CapSense_Structure.c ****     { /* 8: Button8_Sns0 */
 265:Generated_Source\PSoC6/CapSense_Structure.c ****         CapSense_Sns_8_PORT,
 266:Generated_Source\PSoC6/CapSense_Structure.c ****         (uint8)CapSense_Sns_8_NUM,
 267:Generated_Source\PSoC6/CapSense_Structure.c ****     },
 268:Generated_Source\PSoC6/CapSense_Structure.c ****     { /* 9: Button9_Sns0 */
 269:Generated_Source\PSoC6/CapSense_Structure.c ****         CapSense_Sns_9_PORT,
 270:Generated_Source\PSoC6/CapSense_Structure.c ****         (uint8)CapSense_Sns_9_NUM,
 271:Generated_Source\PSoC6/CapSense_Structure.c ****     },
 272:Generated_Source\PSoC6/CapSense_Structure.c **** };
 273:Generated_Source\PSoC6/CapSense_Structure.c **** 
 274:Generated_Source\PSoC6/CapSense_Structure.c **** 
 275:Generated_Source\PSoC6/CapSense_Structure.c **** 
 276:Generated_Source\PSoC6/CapSense_Structure.c **** /** \}
 277:Generated_Source\PSoC6/CapSense_Structure.c **** * \endcond */
 278:Generated_Source\PSoC6/CapSense_Structure.c **** 
 279:Generated_Source\PSoC6/CapSense_Structure.c **** /* Initialization data for RAM widget list */
 280:Generated_Source\PSoC6/CapSense_Structure.c **** const CapSense_RAM_WD_LIST_STRUCT CapSense_ramWidgetInit =
 281:Generated_Source\PSoC6/CapSense_Structure.c **** {
 282:Generated_Source\PSoC6/CapSense_Structure.c ****     { /* Button0 */
 283:Generated_Source\PSoC6/CapSense_Structure.c ****         CapSense_BUTTON0_RESOLUTION,
 284:Generated_Source\PSoC6/CapSense_Structure.c ****         CapSense_BUTTON0_FINGER_TH,
 285:Generated_Source\PSoC6/CapSense_Structure.c ****         CapSense_BUTTON0_NOISE_TH,
 286:Generated_Source\PSoC6/CapSense_Structure.c ****         CapSense_BUTTON0_NNOISE_TH,
 287:Generated_Source\PSoC6/CapSense_Structure.c ****         CapSense_BUTTON0_HYSTERESIS,
 288:Generated_Source\PSoC6/CapSense_Structure.c ****         CapSense_BUTTON0_ON_DEBOUNCE,
 289:Generated_Source\PSoC6/CapSense_Structure.c ****         CapSense_BUTTON0_LOW_BSLN_RST,
 290:Generated_Source\PSoC6/CapSense_Structure.c ****         {
 291:Generated_Source\PSoC6/CapSense_Structure.c ****             CapSense_BUTTON0_IDAC_MOD0,
 292:Generated_Source\PSoC6/CapSense_Structure.c ****         },
 293:Generated_Source\PSoC6/CapSense_Structure.c ****         CapSense_BUTTON0_SNS_CLK,
 294:Generated_Source\PSoC6/CapSense_Structure.c ****         CapSense_BUTTON0_SNS_CLK_SOURCE,
 295:Generated_Source\PSoC6/CapSense_Structure.c ****     },
 296:Generated_Source\PSoC6/CapSense_Structure.c ****     { /* Button1 */
 297:Generated_Source\PSoC6/CapSense_Structure.c ****         CapSense_BUTTON1_RESOLUTION,
 298:Generated_Source\PSoC6/CapSense_Structure.c ****         CapSense_BUTTON1_FINGER_TH,
 299:Generated_Source\PSoC6/CapSense_Structure.c ****         CapSense_BUTTON1_NOISE_TH,
 300:Generated_Source\PSoC6/CapSense_Structure.c ****         CapSense_BUTTON1_NNOISE_TH,
 301:Generated_Source\PSoC6/CapSense_Structure.c ****         CapSense_BUTTON1_HYSTERESIS,
 302:Generated_Source\PSoC6/CapSense_Structure.c ****         CapSense_BUTTON1_ON_DEBOUNCE,
 303:Generated_Source\PSoC6/CapSense_Structure.c ****         CapSense_BUTTON1_LOW_BSLN_RST,
 304:Generated_Source\PSoC6/CapSense_Structure.c ****         {
 305:Generated_Source\PSoC6/CapSense_Structure.c ****             CapSense_BUTTON1_IDAC_MOD0,
 306:Generated_Source\PSoC6/CapSense_Structure.c ****         },
 307:Generated_Source\PSoC6/CapSense_Structure.c ****         CapSense_BUTTON1_SNS_CLK,
 308:Generated_Source\PSoC6/CapSense_Structure.c ****         CapSense_BUTTON1_SNS_CLK_SOURCE,
 309:Generated_Source\PSoC6/CapSense_Structure.c ****     },
 310:Generated_Source\PSoC6/CapSense_Structure.c ****     { /* Button2 */
 311:Generated_Source\PSoC6/CapSense_Structure.c ****         CapSense_BUTTON2_RESOLUTION,
 312:Generated_Source\PSoC6/CapSense_Structure.c ****         CapSense_BUTTON2_FINGER_TH,
 313:Generated_Source\PSoC6/CapSense_Structure.c ****         CapSense_BUTTON2_NOISE_TH,
 314:Generated_Source\PSoC6/CapSense_Structure.c ****         CapSense_BUTTON2_NNOISE_TH,
 315:Generated_Source\PSoC6/CapSense_Structure.c ****         CapSense_BUTTON2_HYSTERESIS,
 316:Generated_Source\PSoC6/CapSense_Structure.c ****         CapSense_BUTTON2_ON_DEBOUNCE,
ARM GAS  C:\Users\User\AppData\Local\Temp\ccRgzybA.s 			page 7


 317:Generated_Source\PSoC6/CapSense_Structure.c ****         CapSense_BUTTON2_LOW_BSLN_RST,
 318:Generated_Source\PSoC6/CapSense_Structure.c ****         {
 319:Generated_Source\PSoC6/CapSense_Structure.c ****             CapSense_BUTTON2_IDAC_MOD0,
 320:Generated_Source\PSoC6/CapSense_Structure.c ****         },
 321:Generated_Source\PSoC6/CapSense_Structure.c ****         CapSense_BUTTON2_SNS_CLK,
 322:Generated_Source\PSoC6/CapSense_Structure.c ****         CapSense_BUTTON2_SNS_CLK_SOURCE,
 323:Generated_Source\PSoC6/CapSense_Structure.c ****     },
 324:Generated_Source\PSoC6/CapSense_Structure.c ****     { /* Button3 */
 325:Generated_Source\PSoC6/CapSense_Structure.c ****         CapSense_BUTTON3_RESOLUTION,
 326:Generated_Source\PSoC6/CapSense_Structure.c ****         CapSense_BUTTON3_FINGER_TH,
 327:Generated_Source\PSoC6/CapSense_Structure.c ****         CapSense_BUTTON3_NOISE_TH,
 328:Generated_Source\PSoC6/CapSense_Structure.c ****         CapSense_BUTTON3_NNOISE_TH,
 329:Generated_Source\PSoC6/CapSense_Structure.c ****         CapSense_BUTTON3_HYSTERESIS,
 330:Generated_Source\PSoC6/CapSense_Structure.c ****         CapSense_BUTTON3_ON_DEBOUNCE,
 331:Generated_Source\PSoC6/CapSense_Structure.c ****         CapSense_BUTTON3_LOW_BSLN_RST,
 332:Generated_Source\PSoC6/CapSense_Structure.c ****         {
 333:Generated_Source\PSoC6/CapSense_Structure.c ****             CapSense_BUTTON3_IDAC_MOD0,
 334:Generated_Source\PSoC6/CapSense_Structure.c ****         },
 335:Generated_Source\PSoC6/CapSense_Structure.c ****         CapSense_BUTTON3_SNS_CLK,
 336:Generated_Source\PSoC6/CapSense_Structure.c ****         CapSense_BUTTON3_SNS_CLK_SOURCE,
 337:Generated_Source\PSoC6/CapSense_Structure.c ****     },
 338:Generated_Source\PSoC6/CapSense_Structure.c ****     { /* Button4 */
 339:Generated_Source\PSoC6/CapSense_Structure.c ****         CapSense_BUTTON4_RESOLUTION,
 340:Generated_Source\PSoC6/CapSense_Structure.c ****         CapSense_BUTTON4_FINGER_TH,
 341:Generated_Source\PSoC6/CapSense_Structure.c ****         CapSense_BUTTON4_NOISE_TH,
 342:Generated_Source\PSoC6/CapSense_Structure.c ****         CapSense_BUTTON4_NNOISE_TH,
 343:Generated_Source\PSoC6/CapSense_Structure.c ****         CapSense_BUTTON4_HYSTERESIS,
 344:Generated_Source\PSoC6/CapSense_Structure.c ****         CapSense_BUTTON4_ON_DEBOUNCE,
 345:Generated_Source\PSoC6/CapSense_Structure.c ****         CapSense_BUTTON4_LOW_BSLN_RST,
 346:Generated_Source\PSoC6/CapSense_Structure.c ****         {
 347:Generated_Source\PSoC6/CapSense_Structure.c ****             CapSense_BUTTON4_IDAC_MOD0,
 348:Generated_Source\PSoC6/CapSense_Structure.c ****         },
 349:Generated_Source\PSoC6/CapSense_Structure.c ****         CapSense_BUTTON4_SNS_CLK,
 350:Generated_Source\PSoC6/CapSense_Structure.c ****         CapSense_BUTTON4_SNS_CLK_SOURCE,
 351:Generated_Source\PSoC6/CapSense_Structure.c ****     },
 352:Generated_Source\PSoC6/CapSense_Structure.c ****     { /* Button5 */
 353:Generated_Source\PSoC6/CapSense_Structure.c ****         CapSense_BUTTON5_RESOLUTION,
 354:Generated_Source\PSoC6/CapSense_Structure.c ****         CapSense_BUTTON5_FINGER_TH,
 355:Generated_Source\PSoC6/CapSense_Structure.c ****         CapSense_BUTTON5_NOISE_TH,
 356:Generated_Source\PSoC6/CapSense_Structure.c ****         CapSense_BUTTON5_NNOISE_TH,
 357:Generated_Source\PSoC6/CapSense_Structure.c ****         CapSense_BUTTON5_HYSTERESIS,
 358:Generated_Source\PSoC6/CapSense_Structure.c ****         CapSense_BUTTON5_ON_DEBOUNCE,
 359:Generated_Source\PSoC6/CapSense_Structure.c ****         CapSense_BUTTON5_LOW_BSLN_RST,
 360:Generated_Source\PSoC6/CapSense_Structure.c ****         {
 361:Generated_Source\PSoC6/CapSense_Structure.c ****             CapSense_BUTTON5_IDAC_MOD0,
 362:Generated_Source\PSoC6/CapSense_Structure.c ****         },
 363:Generated_Source\PSoC6/CapSense_Structure.c ****         CapSense_BUTTON5_SNS_CLK,
 364:Generated_Source\PSoC6/CapSense_Structure.c ****         CapSense_BUTTON5_SNS_CLK_SOURCE,
 365:Generated_Source\PSoC6/CapSense_Structure.c ****     },
 366:Generated_Source\PSoC6/CapSense_Structure.c ****     { /* Button6 */
 367:Generated_Source\PSoC6/CapSense_Structure.c ****         CapSense_BUTTON6_RESOLUTION,
 368:Generated_Source\PSoC6/CapSense_Structure.c ****         CapSense_BUTTON6_FINGER_TH,
 369:Generated_Source\PSoC6/CapSense_Structure.c ****         CapSense_BUTTON6_NOISE_TH,
 370:Generated_Source\PSoC6/CapSense_Structure.c ****         CapSense_BUTTON6_NNOISE_TH,
 371:Generated_Source\PSoC6/CapSense_Structure.c ****         CapSense_BUTTON6_HYSTERESIS,
 372:Generated_Source\PSoC6/CapSense_Structure.c ****         CapSense_BUTTON6_ON_DEBOUNCE,
 373:Generated_Source\PSoC6/CapSense_Structure.c ****         CapSense_BUTTON6_LOW_BSLN_RST,
ARM GAS  C:\Users\User\AppData\Local\Temp\ccRgzybA.s 			page 8


 374:Generated_Source\PSoC6/CapSense_Structure.c ****         {
 375:Generated_Source\PSoC6/CapSense_Structure.c ****             CapSense_BUTTON6_IDAC_MOD0,
 376:Generated_Source\PSoC6/CapSense_Structure.c ****         },
 377:Generated_Source\PSoC6/CapSense_Structure.c ****         CapSense_BUTTON6_SNS_CLK,
 378:Generated_Source\PSoC6/CapSense_Structure.c ****         CapSense_BUTTON6_SNS_CLK_SOURCE,
 379:Generated_Source\PSoC6/CapSense_Structure.c ****     },
 380:Generated_Source\PSoC6/CapSense_Structure.c ****     { /* Button7 */
 381:Generated_Source\PSoC6/CapSense_Structure.c ****         CapSense_BUTTON7_RESOLUTION,
 382:Generated_Source\PSoC6/CapSense_Structure.c ****         CapSense_BUTTON7_FINGER_TH,
 383:Generated_Source\PSoC6/CapSense_Structure.c ****         CapSense_BUTTON7_NOISE_TH,
 384:Generated_Source\PSoC6/CapSense_Structure.c ****         CapSense_BUTTON7_NNOISE_TH,
 385:Generated_Source\PSoC6/CapSense_Structure.c ****         CapSense_BUTTON7_HYSTERESIS,
 386:Generated_Source\PSoC6/CapSense_Structure.c ****         CapSense_BUTTON7_ON_DEBOUNCE,
 387:Generated_Source\PSoC6/CapSense_Structure.c ****         CapSense_BUTTON7_LOW_BSLN_RST,
 388:Generated_Source\PSoC6/CapSense_Structure.c ****         {
 389:Generated_Source\PSoC6/CapSense_Structure.c ****             CapSense_BUTTON7_IDAC_MOD0,
 390:Generated_Source\PSoC6/CapSense_Structure.c ****         },
 391:Generated_Source\PSoC6/CapSense_Structure.c ****         CapSense_BUTTON7_SNS_CLK,
 392:Generated_Source\PSoC6/CapSense_Structure.c ****         CapSense_BUTTON7_SNS_CLK_SOURCE,
 393:Generated_Source\PSoC6/CapSense_Structure.c ****     },
 394:Generated_Source\PSoC6/CapSense_Structure.c ****     { /* Button8 */
 395:Generated_Source\PSoC6/CapSense_Structure.c ****         CapSense_BUTTON8_RESOLUTION,
 396:Generated_Source\PSoC6/CapSense_Structure.c ****         CapSense_BUTTON8_FINGER_TH,
 397:Generated_Source\PSoC6/CapSense_Structure.c ****         CapSense_BUTTON8_NOISE_TH,
 398:Generated_Source\PSoC6/CapSense_Structure.c ****         CapSense_BUTTON8_NNOISE_TH,
 399:Generated_Source\PSoC6/CapSense_Structure.c ****         CapSense_BUTTON8_HYSTERESIS,
 400:Generated_Source\PSoC6/CapSense_Structure.c ****         CapSense_BUTTON8_ON_DEBOUNCE,
 401:Generated_Source\PSoC6/CapSense_Structure.c ****         CapSense_BUTTON8_LOW_BSLN_RST,
 402:Generated_Source\PSoC6/CapSense_Structure.c ****         {
 403:Generated_Source\PSoC6/CapSense_Structure.c ****             CapSense_BUTTON8_IDAC_MOD0,
 404:Generated_Source\PSoC6/CapSense_Structure.c ****         },
 405:Generated_Source\PSoC6/CapSense_Structure.c ****         CapSense_BUTTON8_SNS_CLK,
 406:Generated_Source\PSoC6/CapSense_Structure.c ****         CapSense_BUTTON8_SNS_CLK_SOURCE,
 407:Generated_Source\PSoC6/CapSense_Structure.c ****     },
 408:Generated_Source\PSoC6/CapSense_Structure.c ****     { /* Button9 */
 409:Generated_Source\PSoC6/CapSense_Structure.c ****         CapSense_BUTTON9_RESOLUTION,
 410:Generated_Source\PSoC6/CapSense_Structure.c ****         CapSense_BUTTON9_FINGER_TH,
 411:Generated_Source\PSoC6/CapSense_Structure.c ****         CapSense_BUTTON9_NOISE_TH,
 412:Generated_Source\PSoC6/CapSense_Structure.c ****         CapSense_BUTTON9_NNOISE_TH,
 413:Generated_Source\PSoC6/CapSense_Structure.c ****         CapSense_BUTTON9_HYSTERESIS,
 414:Generated_Source\PSoC6/CapSense_Structure.c ****         CapSense_BUTTON9_ON_DEBOUNCE,
 415:Generated_Source\PSoC6/CapSense_Structure.c ****         CapSense_BUTTON9_LOW_BSLN_RST,
 416:Generated_Source\PSoC6/CapSense_Structure.c ****         {
 417:Generated_Source\PSoC6/CapSense_Structure.c ****             CapSense_BUTTON9_IDAC_MOD0,
 418:Generated_Source\PSoC6/CapSense_Structure.c ****         },
 419:Generated_Source\PSoC6/CapSense_Structure.c ****         CapSense_BUTTON9_SNS_CLK,
 420:Generated_Source\PSoC6/CapSense_Structure.c ****         CapSense_BUTTON9_SNS_CLK_SOURCE,
 421:Generated_Source\PSoC6/CapSense_Structure.c ****     },
 422:Generated_Source\PSoC6/CapSense_Structure.c **** };
 423:Generated_Source\PSoC6/CapSense_Structure.c **** 
 424:Generated_Source\PSoC6/CapSense_Structure.c **** 
 425:Generated_Source\PSoC6/CapSense_Structure.c **** /* IDAC Initialization Data */
 426:Generated_Source\PSoC6/CapSense_Structure.c **** const uint8 CapSense_ramIdacInit[CapSense_TOTAL_SENSORS] =
 427:Generated_Source\PSoC6/CapSense_Structure.c **** {
 428:Generated_Source\PSoC6/CapSense_Structure.c ****     /* Button0 */
 429:Generated_Source\PSoC6/CapSense_Structure.c ****     CapSense_BUTTON0_SNS0_IDAC_COMP0,
 430:Generated_Source\PSoC6/CapSense_Structure.c **** 
ARM GAS  C:\Users\User\AppData\Local\Temp\ccRgzybA.s 			page 9


 431:Generated_Source\PSoC6/CapSense_Structure.c ****     /* Button1 */
 432:Generated_Source\PSoC6/CapSense_Structure.c ****     CapSense_BUTTON1_SNS0_IDAC_COMP0,
 433:Generated_Source\PSoC6/CapSense_Structure.c **** 
 434:Generated_Source\PSoC6/CapSense_Structure.c ****     /* Button2 */
 435:Generated_Source\PSoC6/CapSense_Structure.c ****     CapSense_BUTTON2_SNS0_IDAC_COMP0,
 436:Generated_Source\PSoC6/CapSense_Structure.c **** 
 437:Generated_Source\PSoC6/CapSense_Structure.c ****     /* Button3 */
 438:Generated_Source\PSoC6/CapSense_Structure.c ****     CapSense_BUTTON3_SNS0_IDAC_COMP0,
 439:Generated_Source\PSoC6/CapSense_Structure.c **** 
 440:Generated_Source\PSoC6/CapSense_Structure.c ****     /* Button4 */
 441:Generated_Source\PSoC6/CapSense_Structure.c ****     CapSense_BUTTON4_SNS0_IDAC_COMP0,
 442:Generated_Source\PSoC6/CapSense_Structure.c **** 
 443:Generated_Source\PSoC6/CapSense_Structure.c ****     /* Button5 */
 444:Generated_Source\PSoC6/CapSense_Structure.c ****     CapSense_BUTTON5_SNS0_IDAC_COMP0,
 445:Generated_Source\PSoC6/CapSense_Structure.c **** 
 446:Generated_Source\PSoC6/CapSense_Structure.c ****     /* Button6 */
 447:Generated_Source\PSoC6/CapSense_Structure.c ****     CapSense_BUTTON6_SNS0_IDAC_COMP0,
 448:Generated_Source\PSoC6/CapSense_Structure.c **** 
 449:Generated_Source\PSoC6/CapSense_Structure.c ****     /* Button7 */
 450:Generated_Source\PSoC6/CapSense_Structure.c ****     CapSense_BUTTON7_SNS0_IDAC_COMP0,
 451:Generated_Source\PSoC6/CapSense_Structure.c **** 
 452:Generated_Source\PSoC6/CapSense_Structure.c ****     /* Button8 */
 453:Generated_Source\PSoC6/CapSense_Structure.c ****     CapSense_BUTTON8_SNS0_IDAC_COMP0,
 454:Generated_Source\PSoC6/CapSense_Structure.c **** 
 455:Generated_Source\PSoC6/CapSense_Structure.c ****     /* Button9 */
 456:Generated_Source\PSoC6/CapSense_Structure.c ****     CapSense_BUTTON9_SNS0_IDAC_COMP0,
 457:Generated_Source\PSoC6/CapSense_Structure.c **** };
 458:Generated_Source\PSoC6/CapSense_Structure.c **** 
 459:Generated_Source\PSoC6/CapSense_Structure.c **** 
 460:Generated_Source\PSoC6/CapSense_Structure.c **** 
 461:Generated_Source\PSoC6/CapSense_Structure.c **** /*******************************************************************************
 462:Generated_Source\PSoC6/CapSense_Structure.c **** * Defines internal data types and statements
 463:Generated_Source\PSoC6/CapSense_Structure.c **** *******************************************************************************/
 464:Generated_Source\PSoC6/CapSense_Structure.c **** #define PARAM_TYPE_OFFSET       (30u)
 465:Generated_Source\PSoC6/CapSense_Structure.c **** #define PARAM_TYPE_MASK         (3Lu << PARAM_TYPE_OFFSET)
 466:Generated_Source\PSoC6/CapSense_Structure.c **** #define PARAM_RWBIT_OFFSET      (29u)
 467:Generated_Source\PSoC6/CapSense_Structure.c **** #define PARAM_RWBIT_MASK        (1Lu << PARAM_RWBIT_OFFSET)
 468:Generated_Source\PSoC6/CapSense_Structure.c **** #define PARAM_FBIT_OFFSET       (28u)
 469:Generated_Source\PSoC6/CapSense_Structure.c **** #define PARAM_FBIT_MASK         (1Lu << PARAM_FBIT_OFFSET)
 470:Generated_Source\PSoC6/CapSense_Structure.c **** #define PARAM_UBIT_OFFSET       (23u)
 471:Generated_Source\PSoC6/CapSense_Structure.c **** #define PARAM_UBIT_MASK         (1Lu << PARAM_UBIT_OFFSET)
 472:Generated_Source\PSoC6/CapSense_Structure.c **** #define PARAM_WDID_OFFSET       (16u)
 473:Generated_Source\PSoC6/CapSense_Structure.c **** #define PARAM_WDID_MASK         (0x7FLu << PARAM_WDID_OFFSET)
 474:Generated_Source\PSoC6/CapSense_Structure.c **** #define PARAM_CRC_OFFSET        (24u)
 475:Generated_Source\PSoC6/CapSense_Structure.c **** #define PARAM_CRC_MASK          (0x0FLu << PARAM_CRC_OFFSET)
 476:Generated_Source\PSoC6/CapSense_Structure.c **** 
 477:Generated_Source\PSoC6/CapSense_Structure.c **** /* Defines align masks for uint16 and uint32 */
 478:Generated_Source\PSoC6/CapSense_Structure.c **** #define UINT16_ALIGN_MASK       (1Lu)
 479:Generated_Source\PSoC6/CapSense_Structure.c **** #define UINT32_ALIGN_MASK       (3Lu)
 480:Generated_Source\PSoC6/CapSense_Structure.c **** 
 481:Generated_Source\PSoC6/CapSense_Structure.c **** /* Defines supported parameter types */
 482:Generated_Source\PSoC6/CapSense_Structure.c **** #define DS_PARAM_TYPE_UINT8     (0x01u)
 483:Generated_Source\PSoC6/CapSense_Structure.c **** #define DS_PARAM_TYPE_UINT16    (0x02u)
 484:Generated_Source\PSoC6/CapSense_Structure.c **** #define DS_PARAM_TYPE_UINT32    (0x03u)
 485:Generated_Source\PSoC6/CapSense_Structure.c **** 
 486:Generated_Source\PSoC6/CapSense_Structure.c **** 
 487:Generated_Source\PSoC6/CapSense_Structure.c **** /* Defines PARAM_ID structure */
ARM GAS  C:\Users\User\AppData\Local\Temp\ccRgzybA.s 			page 10


 488:Generated_Source\PSoC6/CapSense_Structure.c **** typedef struct
 489:Generated_Source\PSoC6/CapSense_Structure.c **** {
 490:Generated_Source\PSoC6/CapSense_Structure.c ****     uint16 offset;      /* parameter offset */
 491:Generated_Source\PSoC6/CapSense_Structure.c ****     uint8  widgetId;    /* widget Id parameter belongs to */
 492:Generated_Source\PSoC6/CapSense_Structure.c ****     uint8  affectsCrc;  /* parameter affects widget CRC */
 493:Generated_Source\PSoC6/CapSense_Structure.c ****     uint8  crc;         /* parameter CRC */
 494:Generated_Source\PSoC6/CapSense_Structure.c ****     uint8  flash;       /* parameter located in FLASH flag */
 495:Generated_Source\PSoC6/CapSense_Structure.c ****     uint8  rw;          /* parameter is read/write flag */
 496:Generated_Source\PSoC6/CapSense_Structure.c ****     uint8  type;        /* parameter type: uint8/uint16/uint32 */
 497:Generated_Source\PSoC6/CapSense_Structure.c **** } PARAM_ID_STRUCT;
 498:Generated_Source\PSoC6/CapSense_Structure.c **** 
 499:Generated_Source\PSoC6/CapSense_Structure.c **** 
 500:Generated_Source\PSoC6/CapSense_Structure.c **** /*******************************************************************************
 501:Generated_Source\PSoC6/CapSense_Structure.c **** * Static Function Prototypes
 502:Generated_Source\PSoC6/CapSense_Structure.c **** *******************************************************************************/
 503:Generated_Source\PSoC6/CapSense_Structure.c **** /**
 504:Generated_Source\PSoC6/CapSense_Structure.c **** * \cond SECTION_CYSENSE_INTERNAL
 505:Generated_Source\PSoC6/CapSense_Structure.c **** * \addtogroup group_cysense_internal
 506:Generated_Source\PSoC6/CapSense_Structure.c **** * \{
 507:Generated_Source\PSoC6/CapSense_Structure.c **** */
 508:Generated_Source\PSoC6/CapSense_Structure.c **** 
 509:Generated_Source\PSoC6/CapSense_Structure.c **** 
 510:Generated_Source\PSoC6/CapSense_Structure.c **** 
 511:Generated_Source\PSoC6/CapSense_Structure.c **** static cy_status DsParseParamId(uint32 paramId, PARAM_ID_STRUCT *pData);
 512:Generated_Source\PSoC6/CapSense_Structure.c **** 
 513:Generated_Source\PSoC6/CapSense_Structure.c **** /** \}
 514:Generated_Source\PSoC6/CapSense_Structure.c **** * \endcond */
 515:Generated_Source\PSoC6/CapSense_Structure.c **** 
 516:Generated_Source\PSoC6/CapSense_Structure.c **** 
 517:Generated_Source\PSoC6/CapSense_Structure.c **** /*******************************************************************************
 518:Generated_Source\PSoC6/CapSense_Structure.c **** * Function Name: CapSense_DsInitialize
 519:Generated_Source\PSoC6/CapSense_Structure.c **** ****************************************************************************//**
 520:Generated_Source\PSoC6/CapSense_Structure.c **** *
 521:Generated_Source\PSoC6/CapSense_Structure.c **** * \brief
 522:Generated_Source\PSoC6/CapSense_Structure.c **** *   This function initializes the Data Structure storage.
 523:Generated_Source\PSoC6/CapSense_Structure.c **** *
 524:Generated_Source\PSoC6/CapSense_Structure.c **** * \details
 525:Generated_Source\PSoC6/CapSense_Structure.c **** *   This function copies the default widget configuration parameters
 526:Generated_Source\PSoC6/CapSense_Structure.c **** *   from the Flash storage into the RAM Data Structure.
 527:Generated_Source\PSoC6/CapSense_Structure.c **** *
 528:Generated_Source\PSoC6/CapSense_Structure.c **** *******************************************************************************/
 529:Generated_Source\PSoC6/CapSense_Structure.c **** void CapSense_DsInitialize(void)
 530:Generated_Source\PSoC6/CapSense_Structure.c **** {
 531:Generated_Source\PSoC6/CapSense_Structure.c ****     #if ((CapSense_ENABLE == CapSense_CSX_EN) || \
 532:Generated_Source\PSoC6/CapSense_Structure.c ****          (CapSense_ENABLE == CapSense_CSD_IDAC_COMP_EN) || \
 533:Generated_Source\PSoC6/CapSense_Structure.c ****         ((CapSense_ENABLE == CapSense_CSX_EN) && \
 534:Generated_Source\PSoC6/CapSense_Structure.c ****          (CapSense_ENABLE == CapSense_CSX_SKIP_OVSMPL_SPECIFIC_NODES)))
 535:Generated_Source\PSoC6/CapSense_Structure.c ****         uint32 snsId;
 536:Generated_Source\PSoC6/CapSense_Structure.c ****         uint32 wdgtId;
 537:Generated_Source\PSoC6/CapSense_Structure.c ****         CapSense_RAM_SNS_STRUCT * ptrSnsTmp;
 538:Generated_Source\PSoC6/CapSense_Structure.c ****         CapSense_FLASH_WD_STRUCT const * ptrFlashWdgt;
 539:Generated_Source\PSoC6/CapSense_Structure.c ****     #endif
 540:Generated_Source\PSoC6/CapSense_Structure.c **** 
 541:Generated_Source\PSoC6/CapSense_Structure.c ****     #if ((CapSense_ENABLE == CapSense_CSX_EN) && \
 542:Generated_Source\PSoC6/CapSense_Structure.c ****          (CapSense_ENABLE == CapSense_CSX_SKIP_OVSMPL_SPECIFIC_NODES))
 543:Generated_Source\PSoC6/CapSense_Structure.c ****         uint16 subConvNumber;
 544:Generated_Source\PSoC6/CapSense_Structure.c ****     #endif
ARM GAS  C:\Users\User\AppData\Local\Temp\ccRgzybA.s 			page 11


 545:Generated_Source\PSoC6/CapSense_Structure.c **** 
 546:Generated_Source\PSoC6/CapSense_Structure.c ****     #if (0u != CapSense_CSX_EN) || (0 != CapSense_CSD_IDAC_COMP_EN)
 547:Generated_Source\PSoC6/CapSense_Structure.c ****         uint8 const * ptrIdacInit = CapSense_ramIdacInit;
 548:Generated_Source\PSoC6/CapSense_Structure.c ****     #endif
 549:Generated_Source\PSoC6/CapSense_Structure.c **** 
 550:Generated_Source\PSoC6/CapSense_Structure.c ****     /* Reset RAM data structure content */
 551:Generated_Source\PSoC6/CapSense_Structure.c ****     (void)memset(&CapSense_dsRam, 0, sizeof(CapSense_dsRam));
 552:Generated_Source\PSoC6/CapSense_Structure.c **** 
 553:Generated_Source\PSoC6/CapSense_Structure.c ****     /* Initialize configId, deviceId and hwClock registers */
 554:Generated_Source\PSoC6/CapSense_Structure.c ****     CapSense_dsRam.configId = CapSense_CONFIG_ID;
 555:Generated_Source\PSoC6/CapSense_Structure.c ****     CapSense_dsRam.deviceId = CapSense_DEVICE_ID;
 556:Generated_Source\PSoC6/CapSense_Structure.c ****     CapSense_dsRam.hwClock = CapSense_HW_CLOCK;
 557:Generated_Source\PSoC6/CapSense_Structure.c **** 
 558:Generated_Source\PSoC6/CapSense_Structure.c ****     /* Initialize global RAM data */
 559:Generated_Source\PSoC6/CapSense_Structure.c ****     CapSense_dsRam.csd0Config = CapSense_CSD0_CONFIG;
 560:Generated_Source\PSoC6/CapSense_Structure.c **** 
 561:Generated_Source\PSoC6/CapSense_Structure.c ****     #if (0u != CapSense_TOTAL_CSD_WIDGETS)
 562:Generated_Source\PSoC6/CapSense_Structure.c ****         CapSense_dsRam.modCsdClk = CapSense_CSD_SCANSPEED_DIVIDER;
 563:Generated_Source\PSoC6/CapSense_Structure.c **** 
 564:Generated_Source\PSoC6/CapSense_Structure.c ****         #if (0u != CapSense_CSD_COMMON_SNS_CLK_EN)
 565:Generated_Source\PSoC6/CapSense_Structure.c ****             CapSense_dsRam.snsCsdClk = CapSense_CSD_SNS_CLK_DIVIDER;
 566:Generated_Source\PSoC6/CapSense_Structure.c ****         #endif /* #if (0u != CapSense_CSD_COMMON_SNS_CLK_EN) */
 567:Generated_Source\PSoC6/CapSense_Structure.c ****     #endif /* #if (0u != CapSense_TOTAL_CSD_WIDGETS) */
 568:Generated_Source\PSoC6/CapSense_Structure.c **** 
 569:Generated_Source\PSoC6/CapSense_Structure.c ****     #if (0u != CapSense_CSX_EN)
 570:Generated_Source\PSoC6/CapSense_Structure.c ****         CapSense_dsRam.modCsxClk = CapSense_CSX_SCANSPEED_DIVIDER;
 571:Generated_Source\PSoC6/CapSense_Structure.c **** 
 572:Generated_Source\PSoC6/CapSense_Structure.c ****         #if (0u != CapSense_CSX_COMMON_TX_CLK_EN)
 573:Generated_Source\PSoC6/CapSense_Structure.c ****             CapSense_dsRam.snsCsxClk = CapSense_CSX_TX_CLK_DIVIDER;
 574:Generated_Source\PSoC6/CapSense_Structure.c ****         #endif /* #if (0u != CapSense_CSX_COMMON_TX_CLK_EN) */
 575:Generated_Source\PSoC6/CapSense_Structure.c ****     #endif /* #if (0u != CapSense_CSX_EN) */
 576:Generated_Source\PSoC6/CapSense_Structure.c **** 
 577:Generated_Source\PSoC6/CapSense_Structure.c ****     #if (0u != CapSense_SELF_TEST_EN)
 578:Generated_Source\PSoC6/CapSense_Structure.c ****         CapSense_dsRam.glbCrc = CapSense_GLB_CRC;
 579:Generated_Source\PSoC6/CapSense_Structure.c ****     #endif /* #if (0u != CapSense_SELF_TEST_EN) */
 580:Generated_Source\PSoC6/CapSense_Structure.c **** 
 581:Generated_Source\PSoC6/CapSense_Structure.c ****     /* Initialize RAM widget data */
 582:Generated_Source\PSoC6/CapSense_Structure.c ****     CapSense_dsRam.wdgtList = CapSense_ramWidgetInit;
 583:Generated_Source\PSoC6/CapSense_Structure.c **** 
 584:Generated_Source\PSoC6/CapSense_Structure.c ****     /* Initialize Gesture configuration structure */
 585:Generated_Source\PSoC6/CapSense_Structure.c ****     #if ((0u != CapSense_GES_GLOBAL_EN) || (0u != CapSense_BALLISTIC_MULTIPLIER_EN))
 586:Generated_Source\PSoC6/CapSense_Structure.c ****         CapSense_dsRam.timestampInterval = CapSense_TIMESTAMP_INTERVAL;
 587:Generated_Source\PSoC6/CapSense_Structure.c ****     #endif /* ((0u != CapSense_GES_GLOBAL_EN) || (0u != CapSense_BALLISTIC_MULTIPLIER_EN)) */
 588:Generated_Source\PSoC6/CapSense_Structure.c **** 
 589:Generated_Source\PSoC6/CapSense_Structure.c ****     #if (0u != CapSense_GES_GLOBAL_EN)
 590:Generated_Source\PSoC6/CapSense_Structure.c ****         CapSense_dsRam.gestures = CapSense_ramGesturesInit;
 591:Generated_Source\PSoC6/CapSense_Structure.c ****     #endif /* (0u != CapSense_GES_GLOBAL_EN) */
 592:Generated_Source\PSoC6/CapSense_Structure.c **** 
 593:Generated_Source\PSoC6/CapSense_Structure.c ****     #if (0u != CapSense_BALLISTIC_MULTIPLIER_EN)
 594:Generated_Source\PSoC6/CapSense_Structure.c ****         CapSense_dsRam.ballisticConfig = CapSense_ramBallisticInit;
 595:Generated_Source\PSoC6/CapSense_Structure.c ****     #endif /* (0u != CapSense_BALLISTIC_MULTIPLIER_EN) */
 596:Generated_Source\PSoC6/CapSense_Structure.c **** 
 597:Generated_Source\PSoC6/CapSense_Structure.c ****     #if (0u != CapSense_CSX_EN) || (0 != CapSense_CSD_IDAC_COMP_EN)
 598:Generated_Source\PSoC6/CapSense_Structure.c ****         /* Initialize IDAC data */
 599:Generated_Source\PSoC6/CapSense_Structure.c ****         ptrFlashWdgt = CapSense_dsFlash.wdgtArray;
 600:Generated_Source\PSoC6/CapSense_Structure.c **** 
 601:Generated_Source\PSoC6/CapSense_Structure.c ****         for (wdgtId = CapSense_TOTAL_WIDGETS; wdgtId-- > 0u; )
ARM GAS  C:\Users\User\AppData\Local\Temp\ccRgzybA.s 			page 12


 602:Generated_Source\PSoC6/CapSense_Structure.c ****         {
 603:Generated_Source\PSoC6/CapSense_Structure.c ****             ptrSnsTmp = ptrFlashWdgt->ptr2SnsRam;
 604:Generated_Source\PSoC6/CapSense_Structure.c **** 
 605:Generated_Source\PSoC6/CapSense_Structure.c ****             for (snsId = CapSense_GET_SNS_CNT_BY_PTR(ptrFlashWdgt); snsId-- > 0u;)
 606:Generated_Source\PSoC6/CapSense_Structure.c ****             {
 607:Generated_Source\PSoC6/CapSense_Structure.c ****                 ptrSnsTmp->idacComp[0u] = *ptrIdacInit;
 608:Generated_Source\PSoC6/CapSense_Structure.c ****                 ptrIdacInit++;
 609:Generated_Source\PSoC6/CapSense_Structure.c **** 
 610:Generated_Source\PSoC6/CapSense_Structure.c ****                 #if (0u != CapSense_MULTI_FREQ_SCAN_EN)
 611:Generated_Source\PSoC6/CapSense_Structure.c ****                     ptrSnsTmp->idacComp[1u] = *ptrIdacInit;
 612:Generated_Source\PSoC6/CapSense_Structure.c ****                     ptrIdacInit++;
 613:Generated_Source\PSoC6/CapSense_Structure.c **** 
 614:Generated_Source\PSoC6/CapSense_Structure.c ****                     ptrSnsTmp->idacComp[2u] = *ptrIdacInit;
 615:Generated_Source\PSoC6/CapSense_Structure.c ****                     ptrIdacInit++;
 616:Generated_Source\PSoC6/CapSense_Structure.c ****                 #endif /* #if (0u != CapSense_MULTI_FREQ_SCAN_EN) */
 617:Generated_Source\PSoC6/CapSense_Structure.c **** 
 618:Generated_Source\PSoC6/CapSense_Structure.c ****                 ptrSnsTmp++;
 619:Generated_Source\PSoC6/CapSense_Structure.c ****             }
 620:Generated_Source\PSoC6/CapSense_Structure.c **** 
 621:Generated_Source\PSoC6/CapSense_Structure.c ****             ptrFlashWdgt++; /* Move to next widget */
 622:Generated_Source\PSoC6/CapSense_Structure.c ****         }
 623:Generated_Source\PSoC6/CapSense_Structure.c ****     #endif /*(0u != CapSense_CSX_EN) || (0 != CapSense_CSD_IDAC_COMP_EN)*/
 624:Generated_Source\PSoC6/CapSense_Structure.c **** 
 625:Generated_Source\PSoC6/CapSense_Structure.c ****     #if ((CapSense_ENABLE == CapSense_CSX_EN) && \
 626:Generated_Source\PSoC6/CapSense_Structure.c ****          (CapSense_ENABLE == CapSense_CSX_SKIP_OVSMPL_SPECIFIC_NODES))
 627:Generated_Source\PSoC6/CapSense_Structure.c ****         /* Initialize Sub-Conversion Number for each node of each CSX widget */
 628:Generated_Source\PSoC6/CapSense_Structure.c ****         ptrFlashWdgt = CapSense_dsFlash.wdgtArray;
 629:Generated_Source\PSoC6/CapSense_Structure.c ****         for (wdgtId = CapSense_TOTAL_WIDGETS; wdgtId-- > 0u;)
 630:Generated_Source\PSoC6/CapSense_Structure.c ****         {
 631:Generated_Source\PSoC6/CapSense_Structure.c ****             /* Check for widget sense method */
 632:Generated_Source\PSoC6/CapSense_Structure.c ****             if (CapSense_SENSE_METHOD_CSX_E == CapSense_GET_SENSE_METHOD(ptrFlashWdgt))
 633:Generated_Source\PSoC6/CapSense_Structure.c ****             {
 634:Generated_Source\PSoC6/CapSense_Structure.c ****                 /* Take the sub-convesion number of a CSX widget and initialize each node of this w
 635:Generated_Source\PSoC6/CapSense_Structure.c ****                 subConvNumber = ((CapSense_RAM_WD_BASE_STRUCT *)(ptrFlashWdgt->ptr2WdgtRam))->resol
 636:Generated_Source\PSoC6/CapSense_Structure.c ****                 ptrSnsTmp = ptrFlashWdgt->ptr2SnsRam;
 637:Generated_Source\PSoC6/CapSense_Structure.c ****                 for (snsId = CapSense_GET_SNS_CNT_BY_PTR(ptrFlashWdgt); snsId-- > 0u;)
 638:Generated_Source\PSoC6/CapSense_Structure.c ****                 {
 639:Generated_Source\PSoC6/CapSense_Structure.c ****                     ptrSnsTmp->subConvNum = subConvNumber;
 640:Generated_Source\PSoC6/CapSense_Structure.c ****                     ptrSnsTmp++;
 641:Generated_Source\PSoC6/CapSense_Structure.c ****                 }
 642:Generated_Source\PSoC6/CapSense_Structure.c ****             }
 643:Generated_Source\PSoC6/CapSense_Structure.c ****             /* Move to the next widget */
 644:Generated_Source\PSoC6/CapSense_Structure.c ****             ptrFlashWdgt++;
 645:Generated_Source\PSoC6/CapSense_Structure.c ****         }
 646:Generated_Source\PSoC6/CapSense_Structure.c ****     #endif /* ((CapSense_ENABLE == CapSense_CSX_EN) && \
 647:Generated_Source\PSoC6/CapSense_Structure.c ****                (CapSense_ENABLE == CapSense_CSX_SKIP_OVSMPL_SPECIFIC_NODES)) */
 648:Generated_Source\PSoC6/CapSense_Structure.c **** 
 649:Generated_Source\PSoC6/CapSense_Structure.c ****     #if (0u != CapSense_ADC_EN)
 650:Generated_Source\PSoC6/CapSense_Structure.c ****         CapSense_AdcDsInitialize();
 651:Generated_Source\PSoC6/CapSense_Structure.c ****     #endif /* (0u != CapSense_ADC_EN) */
 652:Generated_Source\PSoC6/CapSense_Structure.c **** }
 653:Generated_Source\PSoC6/CapSense_Structure.c **** 
 654:Generated_Source\PSoC6/CapSense_Structure.c **** 
 655:Generated_Source\PSoC6/CapSense_Structure.c **** #if (0u != CapSense_ADC_EN)
 656:Generated_Source\PSoC6/CapSense_Structure.c ****     /*******************************************************************************
 657:Generated_Source\PSoC6/CapSense_Structure.c ****     * Function Name: CapSense_AdcDsInitialize
 658:Generated_Source\PSoC6/CapSense_Structure.c ****     ****************************************************************************//**
ARM GAS  C:\Users\User\AppData\Local\Temp\ccRgzybA.s 			page 13


 659:Generated_Source\PSoC6/CapSense_Structure.c ****     *
 660:Generated_Source\PSoC6/CapSense_Structure.c ****     * \brief
 661:Generated_Source\PSoC6/CapSense_Structure.c ****     *   Configures the initial Adc datastructure members.
 662:Generated_Source\PSoC6/CapSense_Structure.c ****     *
 663:Generated_Source\PSoC6/CapSense_Structure.c ****     *******************************************************************************/
 664:Generated_Source\PSoC6/CapSense_Structure.c ****     void CapSense_AdcDsInitialize(void)
 665:Generated_Source\PSoC6/CapSense_Structure.c ****     {
 666:Generated_Source\PSoC6/CapSense_Structure.c ****         CapSense_dsRam.adcResolution = CapSense_ADC_RESOLUTION;
 667:Generated_Source\PSoC6/CapSense_Structure.c ****         CapSense_dsRam.adcIdac = (uint8)(CapSense_ADC_IDAC_DEFAULT);
 668:Generated_Source\PSoC6/CapSense_Structure.c ****         CapSense_dsRam.adcActiveCh = CapSense_AdcNO_CHANNEL;
 669:Generated_Source\PSoC6/CapSense_Structure.c ****     }
 670:Generated_Source\PSoC6/CapSense_Structure.c **** #endif /* (0u != CapSense_ADC_EN) */
 671:Generated_Source\PSoC6/CapSense_Structure.c **** 
 672:Generated_Source\PSoC6/CapSense_Structure.c **** 
 673:Generated_Source\PSoC6/CapSense_Structure.c **** /*******************************************************************************
 674:Generated_Source\PSoC6/CapSense_Structure.c **** * Function Name: DsParseParamId
 675:Generated_Source\PSoC6/CapSense_Structure.c **** ****************************************************************************//**
 676:Generated_Source\PSoC6/CapSense_Structure.c **** *
 677:Generated_Source\PSoC6/CapSense_Structure.c **** * \brief
 678:Generated_Source\PSoC6/CapSense_Structure.c **** *   This function parses the parameter ID and checks its correctness.
 679:Generated_Source\PSoC6/CapSense_Structure.c **** *
 680:Generated_Source\PSoC6/CapSense_Structure.c **** * \details
 681:Generated_Source\PSoC6/CapSense_Structure.c **** *   This function checks the parameter CRC if the self-test is enabled,
 682:Generated_Source\PSoC6/CapSense_Structure.c **** *   validates the offset value and parameter type.
 683:Generated_Source\PSoC6/CapSense_Structure.c **** *
 684:Generated_Source\PSoC6/CapSense_Structure.c **** * \param paramId The parameter to parse.
 685:Generated_Source\PSoC6/CapSense_Structure.c **** * \param pData   The pointer to the structure that will hold parsed data.
 686:Generated_Source\PSoC6/CapSense_Structure.c **** *
 687:Generated_Source\PSoC6/CapSense_Structure.c **** * \return CY_RET_SUCCESS     If the parameter is valid
 688:Generated_Source\PSoC6/CapSense_Structure.c **** *         CY_RET_BAD_PARAM   If  the parameter is invalid
 689:Generated_Source\PSoC6/CapSense_Structure.c **** *
 690:Generated_Source\PSoC6/CapSense_Structure.c **** *******************************************************************************/
 691:Generated_Source\PSoC6/CapSense_Structure.c **** static cy_status DsParseParamId(uint32 paramId, PARAM_ID_STRUCT *pData)
 692:Generated_Source\PSoC6/CapSense_Structure.c **** {
  27              		.loc 1 692 0
  28              		.cfi_startproc
  29              		@ args = 0, pretend = 0, frame = 0
  30              		@ frame_needed = 0, uses_anonymous_args = 0
  31              	.LVL0:
  32 0000 70B5     		push	{r4, r5, r6, lr}
  33              		.cfi_def_cfa_offset 16
  34              		.cfi_offset 4, -16
  35              		.cfi_offset 5, -12
  36              		.cfi_offset 6, -8
  37              		.cfi_offset 14, -4
  38              	.LVL1:
 693:Generated_Source\PSoC6/CapSense_Structure.c ****     cy_status result = CY_RET_SUCCESS;
 694:Generated_Source\PSoC6/CapSense_Structure.c **** 
 695:Generated_Source\PSoC6/CapSense_Structure.c ****     #if (0u != CapSense_SELF_TEST_EN)
 696:Generated_Source\PSoC6/CapSense_Structure.c ****         const uint8 crcTable[] =
 697:Generated_Source\PSoC6/CapSense_Structure.c ****         {
 698:Generated_Source\PSoC6/CapSense_Structure.c ****             0x00u, 0x09u, 0x0Bu, 0x02u, 0x0Fu, 0x06u, 0x04u, 0x0Du,
 699:Generated_Source\PSoC6/CapSense_Structure.c ****             0x07u, 0x0Eu, 0x0Cu, 0x05u, 0x08u, 0x01u, 0x03u, 0x0Au
 700:Generated_Source\PSoC6/CapSense_Structure.c ****         };
 701:Generated_Source\PSoC6/CapSense_Structure.c **** 
 702:Generated_Source\PSoC6/CapSense_Structure.c ****         uint32 i;
 703:Generated_Source\PSoC6/CapSense_Structure.c ****         uint32 actualCrc = 0u;
ARM GAS  C:\Users\User\AppData\Local\Temp\ccRgzybA.s 			page 14


 704:Generated_Source\PSoC6/CapSense_Structure.c ****         uint32 crcIndex;
 705:Generated_Source\PSoC6/CapSense_Structure.c ****     #endif /* #if (0u != CapSense_SELF_TEST_EN) */
 706:Generated_Source\PSoC6/CapSense_Structure.c **** 
 707:Generated_Source\PSoC6/CapSense_Structure.c ****     /* Extract parameter data */
 708:Generated_Source\PSoC6/CapSense_Structure.c ****     pData->offset     = CY_LO16(paramId);
  39              		.loc 1 708 0
  40 0002 85B2     		uxth	r5, r0
  41 0004 0D80     		strh	r5, [r1]
 709:Generated_Source\PSoC6/CapSense_Structure.c ****     pData->affectsCrc = CY_LO8((paramId & PARAM_UBIT_MASK)  >> PARAM_UBIT_OFFSET);
  42              		.loc 1 709 0
  43 0006 C30D     		lsrs	r3, r0, #23
  44 0008 0124     		movs	r4, #1
  45 000a 2340     		ands	r3, r4
  46 000c CB70     		strb	r3, [r1, #3]
 710:Generated_Source\PSoC6/CapSense_Structure.c ****     pData->widgetId   = CY_LO8((paramId & PARAM_WDID_MASK)  >> PARAM_WDID_OFFSET);
  47              		.loc 1 710 0
  48 000e 030C     		lsrs	r3, r0, #16
  49 0010 7F22     		movs	r2, #127
  50 0012 1340     		ands	r3, r2
  51 0014 8B70     		strb	r3, [r1, #2]
 711:Generated_Source\PSoC6/CapSense_Structure.c ****     pData->type       = CY_LO8((paramId & PARAM_TYPE_MASK)  >> PARAM_TYPE_OFFSET);
  52              		.loc 1 711 0
  53 0016 860F     		lsrs	r6, r0, #30
  54 0018 CE71     		strb	r6, [r1, #7]
 712:Generated_Source\PSoC6/CapSense_Structure.c ****     pData->flash      = CY_LO8((paramId & PARAM_FBIT_MASK)  >> PARAM_FBIT_OFFSET);
  55              		.loc 1 712 0
  56 001a 030F     		lsrs	r3, r0, #28
  57 001c 2340     		ands	r3, r4
  58 001e 4B71     		strb	r3, [r1, #5]
 713:Generated_Source\PSoC6/CapSense_Structure.c ****     pData->rw         = CY_LO8((paramId & PARAM_RWBIT_MASK) >> PARAM_RWBIT_OFFSET);
  59              		.loc 1 713 0
  60 0020 420F     		lsrs	r2, r0, #29
  61 0022 2240     		ands	r2, r4
  62 0024 8A71     		strb	r2, [r1, #6]
 714:Generated_Source\PSoC6/CapSense_Structure.c ****     pData->crc        = CY_LO8((paramId & PARAM_CRC_MASK)   >> PARAM_CRC_OFFSET);
  63              		.loc 1 714 0
  64 0026 000E     		lsrs	r0, r0, #24
  65              	.LVL2:
  66 0028 0E34     		adds	r4, r4, #14
  67 002a 2040     		ands	r0, r4
  68 002c 0871     		strb	r0, [r1, #4]
 715:Generated_Source\PSoC6/CapSense_Structure.c **** 
 716:Generated_Source\PSoC6/CapSense_Structure.c ****     /* Check parameter CRC if self-test is enabled */
 717:Generated_Source\PSoC6/CapSense_Structure.c ****     #if (0u != CapSense_SELF_TEST_EN)
 718:Generated_Source\PSoC6/CapSense_Structure.c **** 
 719:Generated_Source\PSoC6/CapSense_Structure.c ****         /* Calculate CRC for bits 0..24.
 720:Generated_Source\PSoC6/CapSense_Structure.c ****          * The CRC is calculated using nibbles (4-bits).
 721:Generated_Source\PSoC6/CapSense_Structure.c ****          * So for 0..24 bits there are in total 6 nibbles. */
 722:Generated_Source\PSoC6/CapSense_Structure.c ****         for (i = 6u; i > 0u; i--)
 723:Generated_Source\PSoC6/CapSense_Structure.c ****         {
 724:Generated_Source\PSoC6/CapSense_Structure.c ****             crcIndex = actualCrc ^ (paramId & 0x0Fu);
 725:Generated_Source\PSoC6/CapSense_Structure.c ****             actualCrc = crcTable[crcIndex];
 726:Generated_Source\PSoC6/CapSense_Structure.c ****             paramId >>= 4u;
 727:Generated_Source\PSoC6/CapSense_Structure.c ****         }
 728:Generated_Source\PSoC6/CapSense_Structure.c **** 
 729:Generated_Source\PSoC6/CapSense_Structure.c ****         /* Add bits 28..32 */
 730:Generated_Source\PSoC6/CapSense_Structure.c ****         crcIndex = actualCrc ^ ((paramId >> 4u) & 0x0Fu);
ARM GAS  C:\Users\User\AppData\Local\Temp\ccRgzybA.s 			page 15


 731:Generated_Source\PSoC6/CapSense_Structure.c ****         actualCrc = crcTable[crcIndex];
 732:Generated_Source\PSoC6/CapSense_Structure.c **** 
 733:Generated_Source\PSoC6/CapSense_Structure.c ****         /* Add bits 24..28 (CRC) */
 734:Generated_Source\PSoC6/CapSense_Structure.c ****         crcIndex = actualCrc ^ (paramId & 0x0Fu);
 735:Generated_Source\PSoC6/CapSense_Structure.c ****         actualCrc = crcTable[crcIndex];
 736:Generated_Source\PSoC6/CapSense_Structure.c **** 
 737:Generated_Source\PSoC6/CapSense_Structure.c ****         if (0u != actualCrc)
 738:Generated_Source\PSoC6/CapSense_Structure.c ****         {
 739:Generated_Source\PSoC6/CapSense_Structure.c ****             /* CRC mismatch */
 740:Generated_Source\PSoC6/CapSense_Structure.c ****             result = CY_RET_BAD_PARAM;
 741:Generated_Source\PSoC6/CapSense_Structure.c ****         }
 742:Generated_Source\PSoC6/CapSense_Structure.c **** 
 743:Generated_Source\PSoC6/CapSense_Structure.c ****         if ((CY_RET_SUCCESS == result) &&
 744:Generated_Source\PSoC6/CapSense_Structure.c ****             (0u != pData->affectsCrc) && (pData->widgetId >= CapSense_TOTAL_WIDGETS ))
 745:Generated_Source\PSoC6/CapSense_Structure.c ****         {
 746:Generated_Source\PSoC6/CapSense_Structure.c ****             /* Wrong widgetId for protected parameter */
 747:Generated_Source\PSoC6/CapSense_Structure.c ****             result = CY_RET_BAD_PARAM;
 748:Generated_Source\PSoC6/CapSense_Structure.c ****         }
 749:Generated_Source\PSoC6/CapSense_Structure.c **** 
 750:Generated_Source\PSoC6/CapSense_Structure.c ****         /* Check offset value range */
 751:Generated_Source\PSoC6/CapSense_Structure.c ****         if (CY_RET_SUCCESS == result)
 752:Generated_Source\PSoC6/CapSense_Structure.c ****         {
 753:Generated_Source\PSoC6/CapSense_Structure.c ****             if (0u == pData->flash)
 754:Generated_Source\PSoC6/CapSense_Structure.c ****             {
 755:Generated_Source\PSoC6/CapSense_Structure.c ****                 /* Check offset for RAM Data Structure range */
 756:Generated_Source\PSoC6/CapSense_Structure.c ****                 if (pData->offset >= sizeof(CapSense_dsRam))
 757:Generated_Source\PSoC6/CapSense_Structure.c ****                 {
 758:Generated_Source\PSoC6/CapSense_Structure.c ****                     result = CY_RET_BAD_PARAM;
 759:Generated_Source\PSoC6/CapSense_Structure.c ****                 }
 760:Generated_Source\PSoC6/CapSense_Structure.c ****             }
 761:Generated_Source\PSoC6/CapSense_Structure.c ****             else
 762:Generated_Source\PSoC6/CapSense_Structure.c ****             {
 763:Generated_Source\PSoC6/CapSense_Structure.c ****                 /* Check offset for Flash Data Structure range */
 764:Generated_Source\PSoC6/CapSense_Structure.c ****                 if (pData->offset >= sizeof(CapSense_dsFlash))
 765:Generated_Source\PSoC6/CapSense_Structure.c ****                 {
 766:Generated_Source\PSoC6/CapSense_Structure.c ****                     result = CY_RET_BAD_PARAM;
 767:Generated_Source\PSoC6/CapSense_Structure.c ****                 }
 768:Generated_Source\PSoC6/CapSense_Structure.c **** 
 769:Generated_Source\PSoC6/CapSense_Structure.c ****                 /* Check if it is marked as Read Only */
 770:Generated_Source\PSoC6/CapSense_Structure.c ****                 if (0u != pData->rw)
 771:Generated_Source\PSoC6/CapSense_Structure.c ****                 {
 772:Generated_Source\PSoC6/CapSense_Structure.c ****                     result = CY_RET_BAD_PARAM;
 773:Generated_Source\PSoC6/CapSense_Structure.c ****                 }
 774:Generated_Source\PSoC6/CapSense_Structure.c ****             }
 775:Generated_Source\PSoC6/CapSense_Structure.c ****         }
 776:Generated_Source\PSoC6/CapSense_Structure.c ****     #else /* #if (0u != CapSense_SELF_TEST_EN) */
 777:Generated_Source\PSoC6/CapSense_Structure.c ****         /* Check offset value range */
 778:Generated_Source\PSoC6/CapSense_Structure.c ****         if (0u == pData->flash)
  69              		.loc 1 778 0
  70 002e 002B     		cmp	r3, #0
  71 0030 05D1     		bne	.L2
 779:Generated_Source\PSoC6/CapSense_Structure.c ****         {
 780:Generated_Source\PSoC6/CapSense_Structure.c ****             /* Check offset for RAM Data Structure range */
 781:Generated_Source\PSoC6/CapSense_Structure.c ****             if (pData->offset >= sizeof(CapSense_dsRam))
  72              		.loc 1 781 0
  73 0032 1C23     		movs	r3, #28
  74 0034 FF33     		adds	r3, r3, #255
ARM GAS  C:\Users\User\AppData\Local\Temp\ccRgzybA.s 			page 16


  75 0036 9D42     		cmp	r5, r3
  76 0038 0BD8     		bhi	.L9
 693:Generated_Source\PSoC6/CapSense_Structure.c **** 
  77              		.loc 1 693 0
  78 003a 0020     		movs	r0, #0
  79 003c 0CE0     		b	.L3
  80              	.L2:
 782:Generated_Source\PSoC6/CapSense_Structure.c ****             {
 783:Generated_Source\PSoC6/CapSense_Structure.c ****                 result = CY_RET_BAD_PARAM;
 784:Generated_Source\PSoC6/CapSense_Structure.c ****             }
 785:Generated_Source\PSoC6/CapSense_Structure.c ****         }
 786:Generated_Source\PSoC6/CapSense_Structure.c ****         else
 787:Generated_Source\PSoC6/CapSense_Structure.c ****         {
 788:Generated_Source\PSoC6/CapSense_Structure.c ****             /* Check offset for Flash Data Structure range */
 789:Generated_Source\PSoC6/CapSense_Structure.c ****             if (pData->offset >= sizeof(CapSense_dsFlash))
  81              		.loc 1 789 0
  82 003e 1823     		movs	r3, #24
  83 0040 FF33     		adds	r3, r3, #255
  84 0042 9D42     		cmp	r5, r3
  85 0044 01D8     		bhi	.L10
 693:Generated_Source\PSoC6/CapSense_Structure.c **** 
  86              		.loc 1 693 0
  87 0046 0020     		movs	r0, #0
  88 0048 00E0     		b	.L4
  89              	.L10:
 790:Generated_Source\PSoC6/CapSense_Structure.c ****             {
 791:Generated_Source\PSoC6/CapSense_Structure.c ****                 result = CY_RET_BAD_PARAM;
  90              		.loc 1 791 0
  91 004a 0120     		movs	r0, #1
  92              	.L4:
  93              	.LVL3:
 792:Generated_Source\PSoC6/CapSense_Structure.c ****             }
 793:Generated_Source\PSoC6/CapSense_Structure.c **** 
 794:Generated_Source\PSoC6/CapSense_Structure.c ****             /* Check if it is marked as Read Only */
 795:Generated_Source\PSoC6/CapSense_Structure.c ****             if (0u != pData->rw)
  94              		.loc 1 795 0
  95 004c 002A     		cmp	r2, #0
  96 004e 02D1     		bne	.L11
  97 0050 02E0     		b	.L3
  98              	.LVL4:
  99              	.L9:
 783:Generated_Source\PSoC6/CapSense_Structure.c ****             }
 100              		.loc 1 783 0
 101 0052 0120     		movs	r0, #1
 102 0054 00E0     		b	.L3
 103              	.LVL5:
 104              	.L11:
 796:Generated_Source\PSoC6/CapSense_Structure.c ****             {
 797:Generated_Source\PSoC6/CapSense_Structure.c ****                 result = CY_RET_BAD_PARAM;
 105              		.loc 1 797 0
 106 0056 0120     		movs	r0, #1
 107              	.LVL6:
 108              	.L3:
 798:Generated_Source\PSoC6/CapSense_Structure.c ****             }
 799:Generated_Source\PSoC6/CapSense_Structure.c ****         }
 800:Generated_Source\PSoC6/CapSense_Structure.c ****     #endif /* #if (0u != CapSense_SELF_TEST_EN) */
 801:Generated_Source\PSoC6/CapSense_Structure.c **** 
ARM GAS  C:\Users\User\AppData\Local\Temp\ccRgzybA.s 			page 17


 802:Generated_Source\PSoC6/CapSense_Structure.c ****     if (CY_RET_SUCCESS == result)
 109              		.loc 1 802 0
 110 0058 0028     		cmp	r0, #0
 111 005a 11D1     		bne	.L5
 803:Generated_Source\PSoC6/CapSense_Structure.c ****     {
 804:Generated_Source\PSoC6/CapSense_Structure.c ****         /* Check parameter type, offset alignment */
 805:Generated_Source\PSoC6/CapSense_Structure.c ****         switch (pData->type)
 112              		.loc 1 805 0
 113 005c 022E     		cmp	r6, #2
 114 005e 04D0     		beq	.L6
 115 0060 032E     		cmp	r6, #3
 116 0062 05D0     		beq	.L7
 117 0064 012E     		cmp	r6, #1
 118 0066 06D1     		bne	.L15
 119 0068 0AE0     		b	.L5
 120              	.L6:
 806:Generated_Source\PSoC6/CapSense_Structure.c ****         {
 807:Generated_Source\PSoC6/CapSense_Structure.c ****         case DS_PARAM_TYPE_UINT16:
 808:Generated_Source\PSoC6/CapSense_Structure.c ****             if (0u != (pData->offset & UINT16_ALIGN_MASK))
 121              		.loc 1 808 0
 122 006a EB07     		lsls	r3, r5, #31
 123 006c 05D4     		bmi	.L13
 124 006e 07E0     		b	.L5
 125              	.L7:
 809:Generated_Source\PSoC6/CapSense_Structure.c ****             {
 810:Generated_Source\PSoC6/CapSense_Structure.c ****                 result = CY_RET_BAD_PARAM;
 811:Generated_Source\PSoC6/CapSense_Structure.c ****             }
 812:Generated_Source\PSoC6/CapSense_Structure.c ****             break;
 813:Generated_Source\PSoC6/CapSense_Structure.c **** 
 814:Generated_Source\PSoC6/CapSense_Structure.c ****         case DS_PARAM_TYPE_UINT32:
 815:Generated_Source\PSoC6/CapSense_Structure.c ****             if (0u != (pData->offset & UINT32_ALIGN_MASK))
 126              		.loc 1 815 0
 127 0070 AB07     		lsls	r3, r5, #30
 128 0072 04D1     		bne	.L14
 129 0074 04E0     		b	.L5
 130              	.L15:
 816:Generated_Source\PSoC6/CapSense_Structure.c ****             {
 817:Generated_Source\PSoC6/CapSense_Structure.c ****                 result = CY_RET_BAD_PARAM;
 818:Generated_Source\PSoC6/CapSense_Structure.c ****             }
 819:Generated_Source\PSoC6/CapSense_Structure.c ****             break;
 820:Generated_Source\PSoC6/CapSense_Structure.c **** 
 821:Generated_Source\PSoC6/CapSense_Structure.c ****         case DS_PARAM_TYPE_UINT8:
 822:Generated_Source\PSoC6/CapSense_Structure.c ****             break;
 823:Generated_Source\PSoC6/CapSense_Structure.c **** 
 824:Generated_Source\PSoC6/CapSense_Structure.c ****         default:
 825:Generated_Source\PSoC6/CapSense_Structure.c ****             result = CY_RET_BAD_PARAM;
 131              		.loc 1 825 0
 132 0076 0120     		movs	r0, #1
 133              	.LVL7:
 134 0078 02E0     		b	.L5
 135              	.LVL8:
 136              	.L13:
 810:Generated_Source\PSoC6/CapSense_Structure.c ****             }
 137              		.loc 1 810 0
 138 007a 0120     		movs	r0, #1
 139              	.LVL9:
 140 007c 00E0     		b	.L5
ARM GAS  C:\Users\User\AppData\Local\Temp\ccRgzybA.s 			page 18


 141              	.LVL10:
 142              	.L14:
 817:Generated_Source\PSoC6/CapSense_Structure.c ****             }
 143              		.loc 1 817 0
 144 007e 0120     		movs	r0, #1
 145              	.LVL11:
 146              	.L5:
 826:Generated_Source\PSoC6/CapSense_Structure.c ****             break;
 827:Generated_Source\PSoC6/CapSense_Structure.c ****         }
 828:Generated_Source\PSoC6/CapSense_Structure.c ****     }
 829:Generated_Source\PSoC6/CapSense_Structure.c **** 
 830:Generated_Source\PSoC6/CapSense_Structure.c ****     return result;
 831:Generated_Source\PSoC6/CapSense_Structure.c **** }
 147              		.loc 1 831 0
 148              		@ sp needed
 149 0080 70BD     		pop	{r4, r5, r6, pc}
 150              		.cfi_endproc
 151              	.LFE37:
 152              		.size	DsParseParamId, .-DsParseParamId
 153 0082 C046     		.section	.text.CapSense_DsInitialize,"ax",%progbits
 154              		.align	2
 155              		.global	CapSense_DsInitialize
 156              		.code	16
 157              		.thumb_func
 158              		.type	CapSense_DsInitialize, %function
 159              	CapSense_DsInitialize:
 160              	.LFB36:
 530:Generated_Source\PSoC6/CapSense_Structure.c ****     #if ((CapSense_ENABLE == CapSense_CSX_EN) || \
 161              		.loc 1 530 0
 162              		.cfi_startproc
 163              		@ args = 0, pretend = 0, frame = 0
 164              		@ frame_needed = 0, uses_anonymous_args = 0
 165 0000 70B5     		push	{r4, r5, r6, lr}
 166              		.cfi_def_cfa_offset 16
 167              		.cfi_offset 4, -16
 168              		.cfi_offset 5, -12
 169              		.cfi_offset 6, -8
 170              		.cfi_offset 14, -4
 171              	.LVL12:
 551:Generated_Source\PSoC6/CapSense_Structure.c **** 
 172              		.loc 1 551 0
 173 0002 184C     		ldr	r4, .L21
 174 0004 8E22     		movs	r2, #142
 175 0006 5200     		lsls	r2, r2, #1
 176 0008 0021     		movs	r1, #0
 177 000a 2000     		movs	r0, r4
 178 000c FFF7FEFF 		bl	memset
 179              	.LVL13:
 554:Generated_Source\PSoC6/CapSense_Structure.c ****     CapSense_dsRam.deviceId = CapSense_DEVICE_ID;
 180              		.loc 1 554 0
 181 0010 154B     		ldr	r3, .L21+4
 182 0012 2380     		strh	r3, [r4]
 555:Generated_Source\PSoC6/CapSense_Structure.c ****     CapSense_dsRam.hwClock = CapSense_HW_CLOCK;
 183              		.loc 1 555 0
 184 0014 9023     		movs	r3, #144
 185 0016 1B01     		lsls	r3, r3, #4
 186 0018 6380     		strh	r3, [r4, #2]
ARM GAS  C:\Users\User\AppData\Local\Temp\ccRgzybA.s 			page 19


 556:Generated_Source\PSoC6/CapSense_Structure.c **** 
 187              		.loc 1 556 0
 188 001a 144B     		ldr	r3, .L21+8
 189 001c A380     		strh	r3, [r4, #4]
 559:Generated_Source\PSoC6/CapSense_Structure.c **** 
 190              		.loc 1 559 0
 191 001e 0823     		movs	r3, #8
 192 0020 6384     		strh	r3, [r4, #34]
 562:Generated_Source\PSoC6/CapSense_Structure.c **** 
 193              		.loc 1 562 0
 194 0022 0222     		movs	r2, #2
 195 0024 1C33     		adds	r3, r3, #28
 196 0026 E254     		strb	r2, [r4, r3]
 582:Generated_Source\PSoC6/CapSense_Structure.c **** 
 197              		.loc 1 582 0
 198 0028 2000     		movs	r0, r4
 199 002a 2630     		adds	r0, r0, #38
 200 002c 8A32     		adds	r2, r2, #138
 201 002e 1049     		ldr	r1, .L21+12
 202 0030 2431     		adds	r1, r1, #36
 203 0032 FFF7FEFF 		bl	memcpy
 204              	.LVL14:
 547:Generated_Source\PSoC6/CapSense_Structure.c ****     #endif
 205              		.loc 1 547 0
 206 0036 0F49     		ldr	r1, .L21+16
 599:Generated_Source\PSoC6/CapSense_Structure.c **** 
 207              		.loc 1 599 0
 208 0038 0C00     		movs	r4, r1
 209 003a 0C34     		adds	r4, r4, #12
 601:Generated_Source\PSoC6/CapSense_Structure.c ****         {
 210              		.loc 1 601 0
 211 003c 0A23     		movs	r3, #10
 212 003e 0CE0     		b	.L17
 213              	.LVL15:
 214              	.L20:
 603:Generated_Source\PSoC6/CapSense_Structure.c **** 
 215              		.loc 1 603 0
 216 0040 A268     		ldr	r2, [r4, #8]
 217              	.LVL16:
 605:Generated_Source\PSoC6/CapSense_Structure.c ****             {
 218              		.loc 1 605 0
 219 0042 238B     		ldrh	r3, [r4, #24]
 220              	.LVL17:
 221 0044 04E0     		b	.L18
 222              	.LVL18:
 223              	.L19:
 607:Generated_Source\PSoC6/CapSense_Structure.c ****                 ptrIdacInit++;
 224              		.loc 1 607 0
 225 0046 0B78     		ldrb	r3, [r1]
 226 0048 5372     		strb	r3, [r2, #9]
 608:Generated_Source\PSoC6/CapSense_Structure.c **** 
 227              		.loc 1 608 0
 228 004a 0131     		adds	r1, r1, #1
 229              	.LVL19:
 618:Generated_Source\PSoC6/CapSense_Structure.c ****             }
 230              		.loc 1 618 0
 231 004c 0A32     		adds	r2, r2, #10
ARM GAS  C:\Users\User\AppData\Local\Temp\ccRgzybA.s 			page 20


 232              	.LVL20:
 605:Generated_Source\PSoC6/CapSense_Structure.c ****             {
 233              		.loc 1 605 0
 234 004e 0300     		movs	r3, r0
 235              	.LVL21:
 236              	.L18:
 605:Generated_Source\PSoC6/CapSense_Structure.c ****             {
 237              		.loc 1 605 0 is_stmt 0 discriminator 1
 238 0050 581E     		subs	r0, r3, #1
 239              	.LVL22:
 240 0052 002B     		cmp	r3, #0
 241 0054 F7D1     		bne	.L19
 621:Generated_Source\PSoC6/CapSense_Structure.c ****         }
 242              		.loc 1 621 0 is_stmt 1
 243 0056 1C34     		adds	r4, r4, #28
 244              	.LVL23:
 601:Generated_Source\PSoC6/CapSense_Structure.c ****         {
 245              		.loc 1 601 0
 246 0058 2B00     		movs	r3, r5
 247              	.LVL24:
 248              	.L17:
 601:Generated_Source\PSoC6/CapSense_Structure.c ****         {
 249              		.loc 1 601 0 is_stmt 0 discriminator 1
 250 005a 5D1E     		subs	r5, r3, #1
 251              	.LVL25:
 252 005c 002B     		cmp	r3, #0
 253 005e EFD1     		bne	.L20
 652:Generated_Source\PSoC6/CapSense_Structure.c **** 
 254              		.loc 1 652 0 is_stmt 1
 255              		@ sp needed
 256              	.LVL26:
 257              	.LVL27:
 258 0060 70BD     		pop	{r4, r5, r6, pc}
 259              	.L22:
 260 0062 C046     		.align	2
 261              	.L21:
 262 0064 00000000 		.word	CapSense_dsRam
 263 0068 2EF4FFFF 		.word	-3026
 264 006c 350C0000 		.word	3125
 265 0070 00010000 		.word	.LANCHOR1
 266 0074 00000000 		.word	.LANCHOR0
 267              		.cfi_endproc
 268              	.LFE36:
 269              		.size	CapSense_DsInitialize, .-CapSense_DsInitialize
 270              		.section	.text.CapSense_GetParam,"ax",%progbits
 271              		.align	2
 272              		.global	CapSense_GetParam
 273              		.code	16
 274              		.thumb_func
 275              		.type	CapSense_GetParam, %function
 276              	CapSense_GetParam:
 277              	.LFB38:
 832:Generated_Source\PSoC6/CapSense_Structure.c **** 
 833:Generated_Source\PSoC6/CapSense_Structure.c **** /*******************************************************************************
 834:Generated_Source\PSoC6/CapSense_Structure.c **** * Function Name: CapSense_GetParam
 835:Generated_Source\PSoC6/CapSense_Structure.c **** ****************************************************************************//**
 836:Generated_Source\PSoC6/CapSense_Structure.c **** *
ARM GAS  C:\Users\User\AppData\Local\Temp\ccRgzybA.s 			page 21


 837:Generated_Source\PSoC6/CapSense_Structure.c **** * \brief
 838:Generated_Source\PSoC6/CapSense_Structure.c **** *  Gets the specified parameter value from the \ref group_structures.
 839:Generated_Source\PSoC6/CapSense_Structure.c **** *
 840:Generated_Source\PSoC6/CapSense_Structure.c **** * \details
 841:Generated_Source\PSoC6/CapSense_Structure.c **** *  This function gets the value of the specified parameter by the paramId
 842:Generated_Source\PSoC6/CapSense_Structure.c **** *  argument. The paramId for each register is available in the
 843:Generated_Source\PSoC6/CapSense_Structure.c **** *  CapSense RegisterMap header file as
 844:Generated_Source\PSoC6/CapSense_Structure.c **** *  CapSense_<ParameterName>_PARAM_ID. The paramId is a special
 845:Generated_Source\PSoC6/CapSense_Structure.c **** *  enumerated value generated by the customizer. The format of paramId is as
 846:Generated_Source\PSoC6/CapSense_Structure.c **** *  follows:
 847:Generated_Source\PSoC6/CapSense_Structure.c **** *    1. [ byte 3 byte 2 byte 1 byte 0 ]
 848:Generated_Source\PSoC6/CapSense_Structure.c **** *    2. [ TTWFCCCC UIIIIIII MMMMMMMM LLLLLLLL ]
 849:Generated_Source\PSoC6/CapSense_Structure.c **** *    3. T - encodes the parameter type:
 850:Generated_Source\PSoC6/CapSense_Structure.c **** *      - 01b: uint8
 851:Generated_Source\PSoC6/CapSense_Structure.c **** *      - 10b: uint16
 852:Generated_Source\PSoC6/CapSense_Structure.c **** *      - 11b: uint32
 853:Generated_Source\PSoC6/CapSense_Structure.c **** *    4. W - indicates whether the parameter is writable:
 854:Generated_Source\PSoC6/CapSense_Structure.c **** *      - 0: ReadOnly
 855:Generated_Source\PSoC6/CapSense_Structure.c **** *      - 1: Read/Write
 856:Generated_Source\PSoC6/CapSense_Structure.c **** *    5. C - 4 bit CRC (X^3 + 1) of the whole paramId word, the C bits are
 857:Generated_Source\PSoC6/CapSense_Structure.c **** *       filled with 0s when the CRC is calculated.
 858:Generated_Source\PSoC6/CapSense_Structure.c **** *    6. U - indicates if the parameter affects the RAM Widget Object CRC.
 859:Generated_Source\PSoC6/CapSense_Structure.c **** *    7. I - specifies that the widgetId parameter belongs to
 860:Generated_Source\PSoC6/CapSense_Structure.c **** *    8. M,L - the parameter offset MSB and LSB accordingly in:
 861:Generated_Source\PSoC6/CapSense_Structure.c **** *      - Flash Data Structure if W bit is 0.
 862:Generated_Source\PSoC6/CapSense_Structure.c **** *      - RAM Data Structure if W bit is 1.
 863:Generated_Source\PSoC6/CapSense_Structure.c **** *
 864:Generated_Source\PSoC6/CapSense_Structure.c **** *  Refer to the \ref group_structures section for details of the data structure
 865:Generated_Source\PSoC6/CapSense_Structure.c **** *  organization and examples of its register access.
 866:Generated_Source\PSoC6/CapSense_Structure.c **** *
 867:Generated_Source\PSoC6/CapSense_Structure.c **** * \param paramId
 868:Generated_Source\PSoC6/CapSense_Structure.c **** *  Specifies the ID of parameter to get its value.
 869:Generated_Source\PSoC6/CapSense_Structure.c **** *  A macro for the parameter ID can be found in the CapSense RegisterMap header
 870:Generated_Source\PSoC6/CapSense_Structure.c **** *  file defined as CapSense_<ParameterName>_PARAM_ID.
 871:Generated_Source\PSoC6/CapSense_Structure.c **** *
 872:Generated_Source\PSoC6/CapSense_Structure.c **** * \param  value
 873:Generated_Source\PSoC6/CapSense_Structure.c **** *  The pointer to a variable to be updated with the obtained value.
 874:Generated_Source\PSoC6/CapSense_Structure.c **** *
 875:Generated_Source\PSoC6/CapSense_Structure.c **** * \return
 876:Generated_Source\PSoC6/CapSense_Structure.c **** *  Returns the status of the operation:
 877:Generated_Source\PSoC6/CapSense_Structure.c **** *    - CY_RET_SUCCESS - The operation is successfully completed.
 878:Generated_Source\PSoC6/CapSense_Structure.c **** *    - CY_RET_BAD_PARAM - The input parameter is invalid.
 879:Generated_Source\PSoC6/CapSense_Structure.c **** *
 880:Generated_Source\PSoC6/CapSense_Structure.c **** *******************************************************************************/
 881:Generated_Source\PSoC6/CapSense_Structure.c **** cy_status CapSense_GetParam(uint32 paramId, uint32 *value)
 882:Generated_Source\PSoC6/CapSense_Structure.c **** {
 278              		.loc 1 882 0
 279              		.cfi_startproc
 280              		@ args = 0, pretend = 0, frame = 8
 281              		@ frame_needed = 0, uses_anonymous_args = 0
 282              	.LVL28:
 283 0000 30B5     		push	{r4, r5, lr}
 284              		.cfi_def_cfa_offset 12
 285              		.cfi_offset 4, -12
 286              		.cfi_offset 5, -8
 287              		.cfi_offset 14, -4
 288 0002 83B0     		sub	sp, sp, #12
ARM GAS  C:\Users\User\AppData\Local\Temp\ccRgzybA.s 			page 22


 289              		.cfi_def_cfa_offset 24
 290 0004 0D00     		movs	r5, r1
 883:Generated_Source\PSoC6/CapSense_Structure.c ****     PARAM_ID_STRUCT pData;
 884:Generated_Source\PSoC6/CapSense_Structure.c ****     cy_status result;
 885:Generated_Source\PSoC6/CapSense_Structure.c **** 
 886:Generated_Source\PSoC6/CapSense_Structure.c ****     union
 887:Generated_Source\PSoC6/CapSense_Structure.c ****     {
 888:Generated_Source\PSoC6/CapSense_Structure.c ****         volatile void   const * ptr;
 889:Generated_Source\PSoC6/CapSense_Structure.c ****         volatile uint8  const * ptrUint8;
 890:Generated_Source\PSoC6/CapSense_Structure.c ****         volatile uint16 const * ptrUint16;
 891:Generated_Source\PSoC6/CapSense_Structure.c ****         volatile uint32 const * ptrUint32;
 892:Generated_Source\PSoC6/CapSense_Structure.c ****     } ptrData;
 893:Generated_Source\PSoC6/CapSense_Structure.c **** 
 894:Generated_Source\PSoC6/CapSense_Structure.c ****     result = DsParseParamId(paramId, &pData);
 291              		.loc 1 894 0
 292 0006 6946     		mov	r1, sp
 293              	.LVL29:
 294 0008 FFF7FEFF 		bl	DsParseParamId
 295              	.LVL30:
 296 000c 041E     		subs	r4, r0, #0
 297              	.LVL31:
 895:Generated_Source\PSoC6/CapSense_Structure.c **** 
 896:Generated_Source\PSoC6/CapSense_Structure.c ****     /* Parse and validate paramId */
 897:Generated_Source\PSoC6/CapSense_Structure.c ****     if (CY_RET_SUCCESS == result)
 298              		.loc 1 897 0
 299 000e 21D1     		bne	.L24
 898:Generated_Source\PSoC6/CapSense_Structure.c ****     {
 899:Generated_Source\PSoC6/CapSense_Structure.c ****         /* Get base address of parameter */
 900:Generated_Source\PSoC6/CapSense_Structure.c ****         if (0u == pData.flash)
 300              		.loc 1 900 0
 301 0010 6B46     		mov	r3, sp
 302 0012 5B79     		ldrb	r3, [r3, #5]
 303 0014 002B     		cmp	r3, #0
 304 0016 01D1     		bne	.L25
 901:Generated_Source\PSoC6/CapSense_Structure.c ****         {
 902:Generated_Source\PSoC6/CapSense_Structure.c ****             ptrData.ptr = &CapSense_dsRam;
 305              		.loc 1 902 0
 306 0018 104A     		ldr	r2, .L30
 307              	.LVL32:
 308 001a 02E0     		b	.L26
 309              	.L25:
 903:Generated_Source\PSoC6/CapSense_Structure.c ****         }
 904:Generated_Source\PSoC6/CapSense_Structure.c ****         else
 905:Generated_Source\PSoC6/CapSense_Structure.c ****         {
 906:Generated_Source\PSoC6/CapSense_Structure.c ****             ptrData.ptr = &CapSense_dsFlash;
 310              		.loc 1 906 0
 311 001c 104B     		ldr	r3, .L30+4
 312 001e 0C33     		adds	r3, r3, #12
 313 0020 1A00     		movs	r2, r3
 314              	.L26:
 907:Generated_Source\PSoC6/CapSense_Structure.c ****         }
 908:Generated_Source\PSoC6/CapSense_Structure.c **** 
 909:Generated_Source\PSoC6/CapSense_Structure.c ****         /* Add offset to base address */
 910:Generated_Source\PSoC6/CapSense_Structure.c ****         ptrData.ptrUint8 += pData.offset;
 315              		.loc 1 910 0
 316 0022 6B46     		mov	r3, sp
 317 0024 1B88     		ldrh	r3, [r3]
ARM GAS  C:\Users\User\AppData\Local\Temp\ccRgzybA.s 			page 23


 318              	.LVL33:
 319 0026 D318     		adds	r3, r2, r3
 911:Generated_Source\PSoC6/CapSense_Structure.c **** 
 912:Generated_Source\PSoC6/CapSense_Structure.c ****         /* Read data */
 913:Generated_Source\PSoC6/CapSense_Structure.c ****         if (DS_PARAM_TYPE_UINT8 == pData.type)
 320              		.loc 1 913 0
 321 0028 6A46     		mov	r2, sp
 322              	.LVL34:
 323 002a D279     		ldrb	r2, [r2, #7]
 324 002c 012A     		cmp	r2, #1
 325 002e 02D1     		bne	.L27
 914:Generated_Source\PSoC6/CapSense_Structure.c ****         {
 915:Generated_Source\PSoC6/CapSense_Structure.c ****             *value = (uint32) (*ptrData.ptrUint8);
 326              		.loc 1 915 0
 327 0030 1B78     		ldrb	r3, [r3]
 328 0032 2B60     		str	r3, [r5]
 329 0034 0EE0     		b	.L24
 330              	.L27:
 916:Generated_Source\PSoC6/CapSense_Structure.c ****         }
 917:Generated_Source\PSoC6/CapSense_Structure.c ****         else if (DS_PARAM_TYPE_UINT16 == pData.type)
 331              		.loc 1 917 0
 332 0036 022A     		cmp	r2, #2
 333 0038 02D1     		bne	.L28
 918:Generated_Source\PSoC6/CapSense_Structure.c ****         {
 919:Generated_Source\PSoC6/CapSense_Structure.c ****             *value = (uint32) (*ptrData.ptrUint16);
 334              		.loc 1 919 0
 335 003a 1B88     		ldrh	r3, [r3]
 336 003c 2B60     		str	r3, [r5]
 337 003e 09E0     		b	.L24
 338              	.L28:
 920:Generated_Source\PSoC6/CapSense_Structure.c ****         }
 921:Generated_Source\PSoC6/CapSense_Structure.c ****         else if (DS_PARAM_TYPE_UINT32 == pData.type)
 339              		.loc 1 921 0
 340 0040 032A     		cmp	r2, #3
 341 0042 02D1     		bne	.L29
 922:Generated_Source\PSoC6/CapSense_Structure.c ****         {
 923:Generated_Source\PSoC6/CapSense_Structure.c ****             *value = *ptrData.ptrUint32;
 342              		.loc 1 923 0
 343 0044 1B68     		ldr	r3, [r3]
 344 0046 2B60     		str	r3, [r5]
 345 0048 04E0     		b	.L24
 346              	.L29:
 924:Generated_Source\PSoC6/CapSense_Structure.c ****         }
 925:Generated_Source\PSoC6/CapSense_Structure.c ****         else
 926:Generated_Source\PSoC6/CapSense_Structure.c ****         {
 927:Generated_Source\PSoC6/CapSense_Structure.c ****             /* Parameter comes here already validated. */
 928:Generated_Source\PSoC6/CapSense_Structure.c ****             CY_ASSERT(0 != 0);
 347              		.loc 1 928 0 discriminator 1
 348 004a E821     		movs	r1, #232
 349 004c 8900     		lsls	r1, r1, #2
 350 004e 0548     		ldr	r0, .L30+8
 351              	.LVL35:
 352 0050 FFF7FEFF 		bl	Cy_SysLib_AssertFailed
 353              	.LVL36:
 354              	.L24:
 929:Generated_Source\PSoC6/CapSense_Structure.c ****         }
 930:Generated_Source\PSoC6/CapSense_Structure.c ****     }
ARM GAS  C:\Users\User\AppData\Local\Temp\ccRgzybA.s 			page 24


 931:Generated_Source\PSoC6/CapSense_Structure.c **** 
 932:Generated_Source\PSoC6/CapSense_Structure.c ****     return result;
 933:Generated_Source\PSoC6/CapSense_Structure.c **** }
 355              		.loc 1 933 0
 356 0054 2000     		movs	r0, r4
 357 0056 03B0     		add	sp, sp, #12
 358              		@ sp needed
 359              	.LVL37:
 360              	.LVL38:
 361 0058 30BD     		pop	{r4, r5, pc}
 362              	.L31:
 363 005a C046     		.align	2
 364              	.L30:
 365 005c 00000000 		.word	CapSense_dsRam
 366 0060 00000000 		.word	.LANCHOR0
 367 0064 00000000 		.word	.LC6
 368              		.cfi_endproc
 369              	.LFE38:
 370              		.size	CapSense_GetParam, .-CapSense_GetParam
 371              		.section	.text.CapSense_SetParam,"ax",%progbits
 372              		.align	2
 373              		.global	CapSense_SetParam
 374              		.code	16
 375              		.thumb_func
 376              		.type	CapSense_SetParam, %function
 377              	CapSense_SetParam:
 378              	.LFB39:
 934:Generated_Source\PSoC6/CapSense_Structure.c **** 
 935:Generated_Source\PSoC6/CapSense_Structure.c **** 
 936:Generated_Source\PSoC6/CapSense_Structure.c **** /*******************************************************************************
 937:Generated_Source\PSoC6/CapSense_Structure.c **** * Function Name: CapSense_SetParam
 938:Generated_Source\PSoC6/CapSense_Structure.c **** ****************************************************************************//**
 939:Generated_Source\PSoC6/CapSense_Structure.c **** *
 940:Generated_Source\PSoC6/CapSense_Structure.c **** * \brief
 941:Generated_Source\PSoC6/CapSense_Structure.c **** *  Sets a new value for the specified parameter in the \ref group_structures.
 942:Generated_Source\PSoC6/CapSense_Structure.c **** *
 943:Generated_Source\PSoC6/CapSense_Structure.c **** * \details
 944:Generated_Source\PSoC6/CapSense_Structure.c **** *  This function sets the value of the specified parameter by the paramId
 945:Generated_Source\PSoC6/CapSense_Structure.c **** *  argument. The paramId for each register is available in the
 946:Generated_Source\PSoC6/CapSense_Structure.c **** *  CapSense RegisterMap header file as
 947:Generated_Source\PSoC6/CapSense_Structure.c **** *  CapSense_<ParameterName>_PARAM_ID. The paramId is a special
 948:Generated_Source\PSoC6/CapSense_Structure.c **** *  enumerated value generated by the customizer. The format of paramId is as
 949:Generated_Source\PSoC6/CapSense_Structure.c **** *  follows:
 950:Generated_Source\PSoC6/CapSense_Structure.c **** *    1. [ byte 3 byte 2 byte 1 byte 0 ]
 951:Generated_Source\PSoC6/CapSense_Structure.c **** *    2. [ TTWFCCCC UIIIIIII MMMMMMMM LLLLLLLL ]
 952:Generated_Source\PSoC6/CapSense_Structure.c **** *    3. T - encodes the parameter type:
 953:Generated_Source\PSoC6/CapSense_Structure.c **** *      - 01b: uint8
 954:Generated_Source\PSoC6/CapSense_Structure.c **** *      - 10b: uint16
 955:Generated_Source\PSoC6/CapSense_Structure.c **** *      - 11b: uint32
 956:Generated_Source\PSoC6/CapSense_Structure.c **** *    4. W - indicates whether the parameter is writable:
 957:Generated_Source\PSoC6/CapSense_Structure.c **** *      - 0: ReadOnly
 958:Generated_Source\PSoC6/CapSense_Structure.c **** *      - 1: Read/Write
 959:Generated_Source\PSoC6/CapSense_Structure.c **** *    5. C - 4 bit CRC (X^3 + 1) of the whole paramId word, the C bits are
 960:Generated_Source\PSoC6/CapSense_Structure.c **** *       filled with 0s when the CRC is calculated.
 961:Generated_Source\PSoC6/CapSense_Structure.c **** *    6. U - indicates if the parameter affects the RAM Widget Object CRC.
 962:Generated_Source\PSoC6/CapSense_Structure.c **** *    7. I - specifies that the widgetId parameter belongs to
 963:Generated_Source\PSoC6/CapSense_Structure.c **** *    8. M,L - the parameter offset MSB and LSB accordingly in:
ARM GAS  C:\Users\User\AppData\Local\Temp\ccRgzybA.s 			page 25


 964:Generated_Source\PSoC6/CapSense_Structure.c **** *      - Flash Data Structure if W bit is 0.
 965:Generated_Source\PSoC6/CapSense_Structure.c **** *      - RAM Data Structure if W bit is 1.
 966:Generated_Source\PSoC6/CapSense_Structure.c **** *
 967:Generated_Source\PSoC6/CapSense_Structure.c **** *  Refer to the \ref group_structures section for details of the data structure
 968:Generated_Source\PSoC6/CapSense_Structure.c **** *  organization and examples of its register access.
 969:Generated_Source\PSoC6/CapSense_Structure.c **** *
 970:Generated_Source\PSoC6/CapSense_Structure.c **** *  This function writes specified value into the desired register without
 971:Generated_Source\PSoC6/CapSense_Structure.c **** *  other registers update. It is application layer responsibility to keep all
 972:Generated_Source\PSoC6/CapSense_Structure.c **** *  the data structure registers aligned. Repeated call of
 973:Generated_Source\PSoC6/CapSense_Structure.c **** *  CapSense_Start() function helps aligning dependent register values.
 974:Generated_Source\PSoC6/CapSense_Structure.c **** *
 975:Generated_Source\PSoC6/CapSense_Structure.c **** * \param paramId
 976:Generated_Source\PSoC6/CapSense_Structure.c **** *  Specifies the ID of parameter to set its value.
 977:Generated_Source\PSoC6/CapSense_Structure.c **** *  A macro for the parameter ID can be found in the CapSense RegisterMap header
 978:Generated_Source\PSoC6/CapSense_Structure.c **** *  file defined as CapSense_<ParameterName>_PARAM_ID.
 979:Generated_Source\PSoC6/CapSense_Structure.c **** 
 980:Generated_Source\PSoC6/CapSense_Structure.c **** * \param value
 981:Generated_Source\PSoC6/CapSense_Structure.c **** *  Specifies the new parameter's value.
 982:Generated_Source\PSoC6/CapSense_Structure.c **** *
 983:Generated_Source\PSoC6/CapSense_Structure.c **** * \return
 984:Generated_Source\PSoC6/CapSense_Structure.c **** *  Returns the status of the operation:
 985:Generated_Source\PSoC6/CapSense_Structure.c **** *    - CY_RET_SUCCESS - The operation is successfully completed.
 986:Generated_Source\PSoC6/CapSense_Structure.c **** *    - CY_RET_BAD_PARAM - The input parameter is invalid.
 987:Generated_Source\PSoC6/CapSense_Structure.c **** *
 988:Generated_Source\PSoC6/CapSense_Structure.c **** *******************************************************************************/
 989:Generated_Source\PSoC6/CapSense_Structure.c **** cy_status CapSense_SetParam(uint32 paramId, uint32 value)
 990:Generated_Source\PSoC6/CapSense_Structure.c **** {
 379              		.loc 1 990 0
 380              		.cfi_startproc
 381              		@ args = 0, pretend = 0, frame = 8
 382              		@ frame_needed = 0, uses_anonymous_args = 0
 383              	.LVL39:
 384 0000 30B5     		push	{r4, r5, lr}
 385              		.cfi_def_cfa_offset 12
 386              		.cfi_offset 4, -12
 387              		.cfi_offset 5, -8
 388              		.cfi_offset 14, -4
 389 0002 83B0     		sub	sp, sp, #12
 390              		.cfi_def_cfa_offset 24
 391 0004 0D00     		movs	r5, r1
 991:Generated_Source\PSoC6/CapSense_Structure.c ****     cy_status result;
 992:Generated_Source\PSoC6/CapSense_Structure.c ****     PARAM_ID_STRUCT pData;
 993:Generated_Source\PSoC6/CapSense_Structure.c **** 
 994:Generated_Source\PSoC6/CapSense_Structure.c ****     union
 995:Generated_Source\PSoC6/CapSense_Structure.c ****     {
 996:Generated_Source\PSoC6/CapSense_Structure.c ****         volatile void   * ptr;
 997:Generated_Source\PSoC6/CapSense_Structure.c ****         volatile uint8  * ptrUint8;
 998:Generated_Source\PSoC6/CapSense_Structure.c ****         volatile uint16 * ptrUint16;
 999:Generated_Source\PSoC6/CapSense_Structure.c ****         volatile uint32 * ptrUint32;
1000:Generated_Source\PSoC6/CapSense_Structure.c ****     } ptrData;
1001:Generated_Source\PSoC6/CapSense_Structure.c **** 
1002:Generated_Source\PSoC6/CapSense_Structure.c ****     result = DsParseParamId(paramId, &pData);
 392              		.loc 1 1002 0
 393 0006 6946     		mov	r1, sp
 394              	.LVL40:
 395 0008 FFF7FEFF 		bl	DsParseParamId
 396              	.LVL41:
ARM GAS  C:\Users\User\AppData\Local\Temp\ccRgzybA.s 			page 26


 397 000c 041E     		subs	r4, r0, #0
 398              	.LVL42:
1003:Generated_Source\PSoC6/CapSense_Structure.c **** 
1004:Generated_Source\PSoC6/CapSense_Structure.c ****     /* verify if parameter is writable */
1005:Generated_Source\PSoC6/CapSense_Structure.c ****     if (CY_RET_SUCCESS == result)
 399              		.loc 1 1005 0
 400 000e 04D1     		bne	.L33
1006:Generated_Source\PSoC6/CapSense_Structure.c ****     {
1007:Generated_Source\PSoC6/CapSense_Structure.c ****         if (0u == pData.rw)
 401              		.loc 1 1007 0
 402 0010 6B46     		mov	r3, sp
 403 0012 9B79     		ldrb	r3, [r3, #6]
 404 0014 002B     		cmp	r3, #0
 405 0016 00D1     		bne	.L33
1008:Generated_Source\PSoC6/CapSense_Structure.c ****         {
1009:Generated_Source\PSoC6/CapSense_Structure.c ****             result = CY_RET_BAD_PARAM;
 406              		.loc 1 1009 0
 407 0018 0134     		adds	r4, r4, #1
 408              	.L33:
 409              	.LVL43:
1010:Generated_Source\PSoC6/CapSense_Structure.c ****         }
1011:Generated_Source\PSoC6/CapSense_Structure.c ****     }
1012:Generated_Source\PSoC6/CapSense_Structure.c **** 
1013:Generated_Source\PSoC6/CapSense_Structure.c ****     /* Parse and validate paramId */
1014:Generated_Source\PSoC6/CapSense_Structure.c ****     if (CY_RET_SUCCESS == result)
 410              		.loc 1 1014 0
 411 001a 002C     		cmp	r4, #0
 412 001c 17D1     		bne	.L34
1015:Generated_Source\PSoC6/CapSense_Structure.c ****     {
1016:Generated_Source\PSoC6/CapSense_Structure.c ****         /* Get base address of parameter */
1017:Generated_Source\PSoC6/CapSense_Structure.c ****         ptrData.ptr = &CapSense_dsRam;
1018:Generated_Source\PSoC6/CapSense_Structure.c **** 
1019:Generated_Source\PSoC6/CapSense_Structure.c ****         /* Add offset to base address */
1020:Generated_Source\PSoC6/CapSense_Structure.c ****         ptrData.ptrUint8 += pData.offset;
 413              		.loc 1 1020 0
 414 001e 6B46     		mov	r3, sp
 415 0020 1A88     		ldrh	r2, [r3]
 416 0022 0C4B     		ldr	r3, .L39
 417 0024 D318     		adds	r3, r2, r3
1021:Generated_Source\PSoC6/CapSense_Structure.c **** 
1022:Generated_Source\PSoC6/CapSense_Structure.c ****         /* Write data */
1023:Generated_Source\PSoC6/CapSense_Structure.c ****         if (DS_PARAM_TYPE_UINT8 == pData.type)
 418              		.loc 1 1023 0
 419 0026 6A46     		mov	r2, sp
 420 0028 D279     		ldrb	r2, [r2, #7]
 421 002a 012A     		cmp	r2, #1
 422 002c 02D1     		bne	.L35
1024:Generated_Source\PSoC6/CapSense_Structure.c ****         {
1025:Generated_Source\PSoC6/CapSense_Structure.c ****             *ptrData.ptrUint8 = CY_LO8(value);
 423              		.loc 1 1025 0
 424 002e EDB2     		uxtb	r5, r5
 425              	.LVL44:
 426 0030 1D70     		strb	r5, [r3]
 427 0032 0CE0     		b	.L34
 428              	.LVL45:
 429              	.L35:
1026:Generated_Source\PSoC6/CapSense_Structure.c ****         }
ARM GAS  C:\Users\User\AppData\Local\Temp\ccRgzybA.s 			page 27


1027:Generated_Source\PSoC6/CapSense_Structure.c ****         else if (DS_PARAM_TYPE_UINT16 == pData.type)
 430              		.loc 1 1027 0
 431 0034 022A     		cmp	r2, #2
 432 0036 02D1     		bne	.L36
1028:Generated_Source\PSoC6/CapSense_Structure.c ****         {
1029:Generated_Source\PSoC6/CapSense_Structure.c ****             *ptrData.ptrUint16 = CY_LO16(value);
 433              		.loc 1 1029 0
 434 0038 ADB2     		uxth	r5, r5
 435              	.LVL46:
 436 003a 1D80     		strh	r5, [r3]
 437 003c 07E0     		b	.L34
 438              	.LVL47:
 439              	.L36:
1030:Generated_Source\PSoC6/CapSense_Structure.c ****         }
1031:Generated_Source\PSoC6/CapSense_Structure.c ****         else if (DS_PARAM_TYPE_UINT32 == pData.type)
 440              		.loc 1 1031 0
 441 003e 032A     		cmp	r2, #3
 442 0040 01D1     		bne	.L37
1032:Generated_Source\PSoC6/CapSense_Structure.c ****         {
1033:Generated_Source\PSoC6/CapSense_Structure.c ****             *ptrData.ptrUint32 = value;
 443              		.loc 1 1033 0
 444 0042 1D60     		str	r5, [r3]
 445 0044 03E0     		b	.L34
 446              	.L37:
1034:Generated_Source\PSoC6/CapSense_Structure.c ****         }
1035:Generated_Source\PSoC6/CapSense_Structure.c ****         else
1036:Generated_Source\PSoC6/CapSense_Structure.c ****         {
1037:Generated_Source\PSoC6/CapSense_Structure.c ****             /* Parameter comes here already validated. */
1038:Generated_Source\PSoC6/CapSense_Structure.c ****             CY_ASSERT(0 != 0);
 447              		.loc 1 1038 0 discriminator 1
 448 0046 0449     		ldr	r1, .L39+4
 449 0048 0448     		ldr	r0, .L39+8
 450 004a FFF7FEFF 		bl	Cy_SysLib_AssertFailed
 451              	.LVL48:
 452              	.L34:
1039:Generated_Source\PSoC6/CapSense_Structure.c ****         }
1040:Generated_Source\PSoC6/CapSense_Structure.c **** 
1041:Generated_Source\PSoC6/CapSense_Structure.c ****         #if (CapSense_ENABLE == (CapSense_TST_WDGT_CRC_EN || CapSense_TST_GLOBAL_CRC_EN))
1042:Generated_Source\PSoC6/CapSense_Structure.c ****             /* Update widget or global CRC if self-test is enabled and parameter affects it */
1043:Generated_Source\PSoC6/CapSense_Structure.c ****             if (0u != pData.affectsCrc)
1044:Generated_Source\PSoC6/CapSense_Structure.c ****             {
1045:Generated_Source\PSoC6/CapSense_Structure.c ****                 if ((ptrData.ptrUint16 >= &CapSense_dsRam.csd0Config) &&
1046:Generated_Source\PSoC6/CapSense_Structure.c ****                     (ptrData.ptrUint16 <  &CapSense_dsRam.glbCrc))
1047:Generated_Source\PSoC6/CapSense_Structure.c ****                 {
1048:Generated_Source\PSoC6/CapSense_Structure.c **** 
1049:Generated_Source\PSoC6/CapSense_Structure.c ****                     #if (CapSense_ENABLE == CapSense_TST_GLOBAL_CRC_EN)
1050:Generated_Source\PSoC6/CapSense_Structure.c ****                         CapSense_DsUpdateGlobalCrc();
1051:Generated_Source\PSoC6/CapSense_Structure.c ****                     #endif /* (CapSense_ENABLE == CapSense_TST_GLOBAL_CRC_EN) */
1052:Generated_Source\PSoC6/CapSense_Structure.c **** 
1053:Generated_Source\PSoC6/CapSense_Structure.c ****                 }
1054:Generated_Source\PSoC6/CapSense_Structure.c ****                 else
1055:Generated_Source\PSoC6/CapSense_Structure.c ****                 {
1056:Generated_Source\PSoC6/CapSense_Structure.c ****                     #if (CapSense_ENABLE == CapSense_TST_WDGT_CRC_EN)
1057:Generated_Source\PSoC6/CapSense_Structure.c ****                         CapSense_DsUpdateWidgetCrc((uint32)pData.widgetId);
1058:Generated_Source\PSoC6/CapSense_Structure.c ****                     #endif /* (CapSense_ENABLE == CapSense_TST_WDGT_CRC_EN) */
1059:Generated_Source\PSoC6/CapSense_Structure.c ****                 }
1060:Generated_Source\PSoC6/CapSense_Structure.c ****             }
ARM GAS  C:\Users\User\AppData\Local\Temp\ccRgzybA.s 			page 28


1061:Generated_Source\PSoC6/CapSense_Structure.c ****         #endif /* (CapSense_ENABLE == (CapSense_TST_WDGT_CRC_EN || CapSense_TST_GLOBAL_CRC_EN)) */
1062:Generated_Source\PSoC6/CapSense_Structure.c ****     }
1063:Generated_Source\PSoC6/CapSense_Structure.c **** 
1064:Generated_Source\PSoC6/CapSense_Structure.c ****     return result;
1065:Generated_Source\PSoC6/CapSense_Structure.c **** }
 453              		.loc 1 1065 0
 454 004e 2000     		movs	r0, r4
 455 0050 03B0     		add	sp, sp, #12
 456              		@ sp needed
 457              	.LVL49:
 458 0052 30BD     		pop	{r4, r5, pc}
 459              	.L40:
 460              		.align	2
 461              	.L39:
 462 0054 00000000 		.word	CapSense_dsRam
 463 0058 0E040000 		.word	1038
 464 005c 00000000 		.word	.LC6
 465              		.cfi_endproc
 466              	.LFE39:
 467              		.size	CapSense_SetParam, .-CapSense_SetParam
 468              		.section	.text.CapSense_IsAnyWidgetActive,"ax",%progbits
 469              		.align	2
 470              		.global	CapSense_IsAnyWidgetActive
 471              		.code	16
 472              		.thumb_func
 473              		.type	CapSense_IsAnyWidgetActive, %function
 474              	CapSense_IsAnyWidgetActive:
 475              	.LFB40:
1066:Generated_Source\PSoC6/CapSense_Structure.c **** 
1067:Generated_Source\PSoC6/CapSense_Structure.c **** /*******************************************************************************
1068:Generated_Source\PSoC6/CapSense_Structure.c **** * Function Name: CapSense_IsAnyWidgetActive
1069:Generated_Source\PSoC6/CapSense_Structure.c **** ****************************************************************************//**
1070:Generated_Source\PSoC6/CapSense_Structure.c **** *
1071:Generated_Source\PSoC6/CapSense_Structure.c **** * \brief
1072:Generated_Source\PSoC6/CapSense_Structure.c **** *  Reports if any widget has detected a touch.
1073:Generated_Source\PSoC6/CapSense_Structure.c **** *
1074:Generated_Source\PSoC6/CapSense_Structure.c **** * \details
1075:Generated_Source\PSoC6/CapSense_Structure.c **** *  This function reports if any widget has detected a touch or not by extracting
1076:Generated_Source\PSoC6/CapSense_Structure.c **** *  information from the wdgtStatus registers
1077:Generated_Source\PSoC6/CapSense_Structure.c **** *  (CapSense_WDGT_STATUS<X>_VALUE). This function does not process a
1078:Generated_Source\PSoC6/CapSense_Structure.c **** *  widget but extracts processed results from the \ref group_structures.
1079:Generated_Source\PSoC6/CapSense_Structure.c **** *
1080:Generated_Source\PSoC6/CapSense_Structure.c **** * \return
1081:Generated_Source\PSoC6/CapSense_Structure.c **** *   Returns the touch detection status of all the widgets:
1082:Generated_Source\PSoC6/CapSense_Structure.c **** *     - Zero - No touch is detected in all the widgets or sensors.
1083:Generated_Source\PSoC6/CapSense_Structure.c **** *     - Non-zero - At least one widget or sensor detected a touch.
1084:Generated_Source\PSoC6/CapSense_Structure.c **** *
1085:Generated_Source\PSoC6/CapSense_Structure.c **** *******************************************************************************/
1086:Generated_Source\PSoC6/CapSense_Structure.c **** uint32 CapSense_IsAnyWidgetActive(void)
1087:Generated_Source\PSoC6/CapSense_Structure.c **** {
 476              		.loc 1 1087 0
 477              		.cfi_startproc
 478              		@ args = 0, pretend = 0, frame = 0
 479              		@ frame_needed = 0, uses_anonymous_args = 0
 480              		@ link register save eliminated.
 481              	.LVL50:
1088:Generated_Source\PSoC6/CapSense_Structure.c ****     uint32 result = 0Lu;
ARM GAS  C:\Users\User\AppData\Local\Temp\ccRgzybA.s 			page 29


1089:Generated_Source\PSoC6/CapSense_Structure.c ****     uint32 wdWord;
1090:Generated_Source\PSoC6/CapSense_Structure.c **** 
1091:Generated_Source\PSoC6/CapSense_Structure.c ****     for (wdWord = CapSense_WDGT_STATUS_WORDS; wdWord-- > 0u;)
 482              		.loc 1 1091 0
 483 0000 0123     		movs	r3, #1
1088:Generated_Source\PSoC6/CapSense_Structure.c ****     uint32 result = 0Lu;
 484              		.loc 1 1088 0
 485 0002 0020     		movs	r0, #0
 486              		.loc 1 1091 0
 487 0004 06E0     		b	.L42
 488              	.LVL51:
 489              	.L43:
1092:Generated_Source\PSoC6/CapSense_Structure.c ****     {
1093:Generated_Source\PSoC6/CapSense_Structure.c ****         result |= CapSense_dsRam.wdgtStatus[wdWord];
 490              		.loc 1 1093 0
 491 0006 131D     		adds	r3, r2, #4
 492 0008 9B00     		lsls	r3, r3, #2
 493 000a 0449     		ldr	r1, .L44
 494 000c CB18     		adds	r3, r1, r3
 495 000e 5B68     		ldr	r3, [r3, #4]
 496 0010 1843     		orrs	r0, r3
 497              	.LVL52:
1091:Generated_Source\PSoC6/CapSense_Structure.c ****     {
 498              		.loc 1 1091 0
 499 0012 1300     		movs	r3, r2
 500              	.LVL53:
 501              	.L42:
1091:Generated_Source\PSoC6/CapSense_Structure.c ****     {
 502              		.loc 1 1091 0 is_stmt 0 discriminator 1
 503 0014 5A1E     		subs	r2, r3, #1
 504              	.LVL54:
 505 0016 002B     		cmp	r3, #0
 506 0018 F5D1     		bne	.L43
1094:Generated_Source\PSoC6/CapSense_Structure.c ****     }
1095:Generated_Source\PSoC6/CapSense_Structure.c **** 
1096:Generated_Source\PSoC6/CapSense_Structure.c ****     return result;
1097:Generated_Source\PSoC6/CapSense_Structure.c **** }
 507              		.loc 1 1097 0 is_stmt 1
 508              		@ sp needed
 509 001a 7047     		bx	lr
 510              	.L45:
 511              		.align	2
 512              	.L44:
 513 001c 00000000 		.word	CapSense_dsRam
 514              		.cfi_endproc
 515              	.LFE40:
 516              		.size	CapSense_IsAnyWidgetActive, .-CapSense_IsAnyWidgetActive
 517              		.section	.text.CapSense_IsWidgetActive,"ax",%progbits
 518              		.align	2
 519              		.global	CapSense_IsWidgetActive
 520              		.code	16
 521              		.thumb_func
 522              		.type	CapSense_IsWidgetActive, %function
 523              	CapSense_IsWidgetActive:
 524              	.LFB41:
1098:Generated_Source\PSoC6/CapSense_Structure.c **** 
1099:Generated_Source\PSoC6/CapSense_Structure.c **** 
ARM GAS  C:\Users\User\AppData\Local\Temp\ccRgzybA.s 			page 30


1100:Generated_Source\PSoC6/CapSense_Structure.c **** /*******************************************************************************
1101:Generated_Source\PSoC6/CapSense_Structure.c **** * Function Name: CapSense_IsWidgetActive
1102:Generated_Source\PSoC6/CapSense_Structure.c **** ****************************************************************************//**
1103:Generated_Source\PSoC6/CapSense_Structure.c **** *
1104:Generated_Source\PSoC6/CapSense_Structure.c **** * \brief
1105:Generated_Source\PSoC6/CapSense_Structure.c **** *  Reports if the specified widget detects a touch on any of its sensors.
1106:Generated_Source\PSoC6/CapSense_Structure.c **** *
1107:Generated_Source\PSoC6/CapSense_Structure.c **** * \details
1108:Generated_Source\PSoC6/CapSense_Structure.c **** *  This function reports if the specified widget has detected a touch or not by
1109:Generated_Source\PSoC6/CapSense_Structure.c **** *  extracting information from the wdgtStatus registers
1110:Generated_Source\PSoC6/CapSense_Structure.c **** *  (CapSense_WDGT_STATUS<X>_VALUE). This function does not process the
1111:Generated_Source\PSoC6/CapSense_Structure.c **** *  widget but extracts processed results from the \ref group_structures.
1112:Generated_Source\PSoC6/CapSense_Structure.c **** *
1113:Generated_Source\PSoC6/CapSense_Structure.c **** * \param widgetId
1114:Generated_Source\PSoC6/CapSense_Structure.c **** *  Specifies the ID number of the widget to get its status.
1115:Generated_Source\PSoC6/CapSense_Structure.c **** *  A macro for the widget ID can be found in the CapSense Configuration header
1116:Generated_Source\PSoC6/CapSense_Structure.c **** *  file defined as CapSense_<WidgetName>_WDGT_ID.
1117:Generated_Source\PSoC6/CapSense_Structure.c **** *
1118:Generated_Source\PSoC6/CapSense_Structure.c **** * \return
1119:Generated_Source\PSoC6/CapSense_Structure.c **** *  Returns the touch detection status of the specified widgets:
1120:Generated_Source\PSoC6/CapSense_Structure.c **** *    - Zero - No touch is detected in the specified widget or a wrong widgetId
1121:Generated_Source\PSoC6/CapSense_Structure.c **** *      is specified.
1122:Generated_Source\PSoC6/CapSense_Structure.c **** *    - Non-zero if at least one sensor of the specified widget is active, i.e.
1123:Generated_Source\PSoC6/CapSense_Structure.c **** *      a touch is detected.
1124:Generated_Source\PSoC6/CapSense_Structure.c **** *
1125:Generated_Source\PSoC6/CapSense_Structure.c **** *******************************************************************************/
1126:Generated_Source\PSoC6/CapSense_Structure.c **** uint32 CapSense_IsWidgetActive(uint32 widgetId)
1127:Generated_Source\PSoC6/CapSense_Structure.c **** {
 525              		.loc 1 1127 0
 526              		.cfi_startproc
 527              		@ args = 0, pretend = 0, frame = 0
 528              		@ frame_needed = 0, uses_anonymous_args = 0
 529              		@ link register save eliminated.
 530              	.LVL55:
1128:Generated_Source\PSoC6/CapSense_Structure.c ****     uint32 result = 0Lu;
1129:Generated_Source\PSoC6/CapSense_Structure.c **** 
1130:Generated_Source\PSoC6/CapSense_Structure.c ****     if (widgetId < CapSense_TOTAL_WIDGETS)
 531              		.loc 1 1130 0
 532 0000 0928     		cmp	r0, #9
 533 0002 0BD8     		bhi	.L48
1131:Generated_Source\PSoC6/CapSense_Structure.c ****     {
1132:Generated_Source\PSoC6/CapSense_Structure.c ****         result = CapSense_GET_WIDGET_ACTIVE_STATUS(widgetId);
 534              		.loc 1 1132 0
 535 0004 1F23     		movs	r3, #31
 536 0006 0340     		ands	r3, r0
 537 0008 0122     		movs	r2, #1
 538 000a 9A40     		lsls	r2, r2, r3
 539 000c 4009     		lsrs	r0, r0, #5
 540              	.LVL56:
 541 000e 031D     		adds	r3, r0, #4
 542 0010 9B00     		lsls	r3, r3, #2
 543 0012 0348     		ldr	r0, .L49
 544 0014 C318     		adds	r3, r0, r3
 545 0016 5868     		ldr	r0, [r3, #4]
 546 0018 1040     		ands	r0, r2
 547              	.LVL57:
 548 001a 00E0     		b	.L47
ARM GAS  C:\Users\User\AppData\Local\Temp\ccRgzybA.s 			page 31


 549              	.LVL58:
 550              	.L48:
1128:Generated_Source\PSoC6/CapSense_Structure.c ****     uint32 result = 0Lu;
 551              		.loc 1 1128 0
 552 001c 0020     		movs	r0, #0
 553              	.LVL59:
 554              	.L47:
1133:Generated_Source\PSoC6/CapSense_Structure.c ****     }
1134:Generated_Source\PSoC6/CapSense_Structure.c ****     return result;
1135:Generated_Source\PSoC6/CapSense_Structure.c **** }
 555              		.loc 1 1135 0
 556              		@ sp needed
 557 001e 7047     		bx	lr
 558              	.L50:
 559              		.align	2
 560              	.L49:
 561 0020 00000000 		.word	CapSense_dsRam
 562              		.cfi_endproc
 563              	.LFE41:
 564              		.size	CapSense_IsWidgetActive, .-CapSense_IsWidgetActive
 565              		.section	.text.CapSense_IsSensorActive,"ax",%progbits
 566              		.align	2
 567              		.global	CapSense_IsSensorActive
 568              		.code	16
 569              		.thumb_func
 570              		.type	CapSense_IsSensorActive, %function
 571              	CapSense_IsSensorActive:
 572              	.LFB42:
1136:Generated_Source\PSoC6/CapSense_Structure.c **** 
1137:Generated_Source\PSoC6/CapSense_Structure.c **** 
1138:Generated_Source\PSoC6/CapSense_Structure.c **** /*******************************************************************************
1139:Generated_Source\PSoC6/CapSense_Structure.c **** * Function Name: CapSense_IsSensorActive
1140:Generated_Source\PSoC6/CapSense_Structure.c **** ****************************************************************************//**
1141:Generated_Source\PSoC6/CapSense_Structure.c **** *
1142:Generated_Source\PSoC6/CapSense_Structure.c **** * \brief
1143:Generated_Source\PSoC6/CapSense_Structure.c **** *  Reports if the specified sensor in the widget detects a touch.
1144:Generated_Source\PSoC6/CapSense_Structure.c **** *
1145:Generated_Source\PSoC6/CapSense_Structure.c **** * \details
1146:Generated_Source\PSoC6/CapSense_Structure.c **** *  This function reports if the specified sensor in the widget has detected a
1147:Generated_Source\PSoC6/CapSense_Structure.c **** *  touch or not by extracting information from the wdgtStatus registers
1148:Generated_Source\PSoC6/CapSense_Structure.c **** *  (CapSense_WDGT_STATUS<X>_VALUE). This function does not process the
1149:Generated_Source\PSoC6/CapSense_Structure.c **** *  widget or sensor but extracts processed results from the \ref group_structures.
1150:Generated_Source\PSoC6/CapSense_Structure.c **** *
1151:Generated_Source\PSoC6/CapSense_Structure.c **** *  For proximity sensors, this function returns the proximity detection status. To
1152:Generated_Source\PSoC6/CapSense_Structure.c **** *  get the finger touch status of proximity sensors, use the
1153:Generated_Source\PSoC6/CapSense_Structure.c **** *  CapSense_IsProximitySensorActive() function.
1154:Generated_Source\PSoC6/CapSense_Structure.c **** *
1155:Generated_Source\PSoC6/CapSense_Structure.c **** * \param widgetId
1156:Generated_Source\PSoC6/CapSense_Structure.c **** *  Specifies the ID number of the widget.
1157:Generated_Source\PSoC6/CapSense_Structure.c **** *  A macro for the widget ID can be found in the CapSense Configuration header
1158:Generated_Source\PSoC6/CapSense_Structure.c **** *  file defined as CapSense_<WidgetName>_WDGT_ID.
1159:Generated_Source\PSoC6/CapSense_Structure.c **** 
1160:Generated_Source\PSoC6/CapSense_Structure.c **** * \param sensorId
1161:Generated_Source\PSoC6/CapSense_Structure.c **** *  Specifies the ID number of the sensor within the widget to get its touch
1162:Generated_Source\PSoC6/CapSense_Structure.c **** *  detection status.
1163:Generated_Source\PSoC6/CapSense_Structure.c **** *  A macro for the sensor ID within the specified widget can be found in the
1164:Generated_Source\PSoC6/CapSense_Structure.c **** *  CapSense Configuration header file defined as
ARM GAS  C:\Users\User\AppData\Local\Temp\ccRgzybA.s 			page 32


1165:Generated_Source\PSoC6/CapSense_Structure.c **** *  CapSense_<WidgetName>_SNS<SensorNumber>_ID.
1166:Generated_Source\PSoC6/CapSense_Structure.c **** *
1167:Generated_Source\PSoC6/CapSense_Structure.c **** * \return
1168:Generated_Source\PSoC6/CapSense_Structure.c **** *  Returns the touch detection status of the specified sensor / widget:
1169:Generated_Source\PSoC6/CapSense_Structure.c **** *    - Zero if no touch is detected in the specified sensor / widget or a wrong
1170:Generated_Source\PSoC6/CapSense_Structure.c **** *      widget ID / sensor ID is specified.
1171:Generated_Source\PSoC6/CapSense_Structure.c **** *    - Non-zero if the specified sensor is active i.e. touch is detected. If the
1172:Generated_Source\PSoC6/CapSense_Structure.c **** *      specific sensor belongs to a proximity widget, the proximity detection
1173:Generated_Source\PSoC6/CapSense_Structure.c **** *      status is returned.
1174:Generated_Source\PSoC6/CapSense_Structure.c **** *
1175:Generated_Source\PSoC6/CapSense_Structure.c **** *******************************************************************************/
1176:Generated_Source\PSoC6/CapSense_Structure.c **** uint32 CapSense_IsSensorActive(uint32 widgetId, uint32 sensorId)
1177:Generated_Source\PSoC6/CapSense_Structure.c **** {
 573              		.loc 1 1177 0
 574              		.cfi_startproc
 575              		@ args = 0, pretend = 0, frame = 0
 576              		@ frame_needed = 0, uses_anonymous_args = 0
 577              		@ link register save eliminated.
 578              	.LVL60:
1178:Generated_Source\PSoC6/CapSense_Structure.c ****     uint32 result = 0Lu;
1179:Generated_Source\PSoC6/CapSense_Structure.c **** 
1180:Generated_Source\PSoC6/CapSense_Structure.c ****     if ((widgetId < CapSense_TOTAL_WIDGETS) &&
 579              		.loc 1 1180 0
 580 0000 0928     		cmp	r0, #9
 581 0002 0ED8     		bhi	.L53
1181:Generated_Source\PSoC6/CapSense_Structure.c ****         (sensorId < CapSense_GET_SENSOR_COUNT(widgetId)))
 582              		.loc 1 1181 0 discriminator 1
 583 0004 C200     		lsls	r2, r0, #3
 584 0006 121A     		subs	r2, r2, r0
 585 0008 9300     		lsls	r3, r2, #2
 586 000a 084A     		ldr	r2, .L55
 587 000c D318     		adds	r3, r2, r3
 588 000e 9B8C     		ldrh	r3, [r3, #36]
1180:Generated_Source\PSoC6/CapSense_Structure.c ****         (sensorId < CapSense_GET_SENSOR_COUNT(widgetId)))
 589              		.loc 1 1180 0 discriminator 1
 590 0010 8B42     		cmp	r3, r1
 591 0012 08D9     		bls	.L54
1182:Generated_Source\PSoC6/CapSense_Structure.c ****     {
1183:Generated_Source\PSoC6/CapSense_Structure.c ****         #if (CapSense_ENABLE == CapSense_PROXIMITY_WIDGET_EN)
1184:Generated_Source\PSoC6/CapSense_Structure.c ****             if (CapSense_WD_PROXIMITY_E ==
1185:Generated_Source\PSoC6/CapSense_Structure.c ****                 (CapSense_WD_TYPE_ENUM)CapSense_dsFlash.wdgtArray[widgetId].wdgtType)
1186:Generated_Source\PSoC6/CapSense_Structure.c ****             {
1187:Generated_Source\PSoC6/CapSense_Structure.c ****                 sensorId = CapSense_PROX_STS_OFFSET(sensorId);
1188:Generated_Source\PSoC6/CapSense_Structure.c ****             }
1189:Generated_Source\PSoC6/CapSense_Structure.c ****         #endif /* (CapSense_ENABLE != CapSense_PROXIMITY_WIDGET_EN) */
1190:Generated_Source\PSoC6/CapSense_Structure.c ****         result = CapSense_dsRam.snsStatus[widgetId] & (1Lu << sensorId);
 592              		.loc 1 1190 0
 593 0014 064B     		ldr	r3, .L55+4
 594 0016 1818     		adds	r0, r3, r0
 595              	.LVL61:
 596 0018 037E     		ldrb	r3, [r0, #24]
 597 001a 0120     		movs	r0, #1
 598 001c 8840     		lsls	r0, r0, r1
 599 001e 1840     		ands	r0, r3
 600              	.LVL62:
 601 0020 02E0     		b	.L52
 602              	.LVL63:
ARM GAS  C:\Users\User\AppData\Local\Temp\ccRgzybA.s 			page 33


 603              	.L53:
1178:Generated_Source\PSoC6/CapSense_Structure.c **** 
 604              		.loc 1 1178 0
 605 0022 0020     		movs	r0, #0
 606              	.LVL64:
 607 0024 00E0     		b	.L52
 608              	.LVL65:
 609              	.L54:
 610 0026 0020     		movs	r0, #0
 611              	.LVL66:
 612              	.L52:
1191:Generated_Source\PSoC6/CapSense_Structure.c ****     }
1192:Generated_Source\PSoC6/CapSense_Structure.c **** 
1193:Generated_Source\PSoC6/CapSense_Structure.c ****     return result;
1194:Generated_Source\PSoC6/CapSense_Structure.c **** }
 613              		.loc 1 1194 0
 614              		@ sp needed
 615 0028 7047     		bx	lr
 616              	.L56:
 617 002a C046     		.align	2
 618              	.L55:
 619 002c 00000000 		.word	.LANCHOR0
 620 0030 00000000 		.word	CapSense_dsRam
 621              		.cfi_endproc
 622              	.LFE42:
 623              		.size	CapSense_IsSensorActive, .-CapSense_IsSensorActive
 624              		.global	CapSense_ramIdacInit
 625              		.global	CapSense_ramWidgetInit
 626              		.global	CapSense_ioList
 627              		.global	CapSense_dsFlash
 628              		.comm	CapSense_dsRam,284,4
 629              		.section	.rodata
 630              		.align	2
 631              		.set	.LANCHOR0,. + 0
 632              		.set	.LANCHOR1,. + 256
 633              		.type	CapSense_ramIdacInit, %object
 634              		.size	CapSense_ramIdacInit, 10
 635              	CapSense_ramIdacInit:
 636 0000 20       		.byte	32
 637 0001 20       		.byte	32
 638 0002 20       		.byte	32
 639 0003 20       		.byte	32
 640 0004 20       		.byte	32
 641 0005 20       		.byte	32
 642 0006 20       		.byte	32
 643 0007 20       		.byte	32
 644 0008 20       		.byte	32
 645 0009 20       		.byte	32
 646 000a 0000     		.space	2
 647              		.type	CapSense_dsFlash, %object
 648              		.size	CapSense_dsFlash, 280
 649              	CapSense_dsFlash:
 650 000c 00000000 		.word	CapSense_ioList
 651 0010 26000000 		.word	CapSense_dsRam+38
 652 0014 B2000000 		.word	CapSense_dsRam+178
 653 0018 00000000 		.word	0
 654 001c 24000000 		.word	CapSense_debounceButton0
ARM GAS  C:\Users\User\AppData\Local\Temp\ccRgzybA.s 			page 34


 655 0020 01280000 		.word	10241
 656 0024 0100     		.short	1
 657 0026 01       		.byte	1
 658 0027 01       		.byte	1
 659 0028 08000000 		.word	CapSense_ioList+8
 660 002c 34000000 		.word	CapSense_dsRam+52
 661 0030 BC000000 		.word	CapSense_dsRam+188
 662 0034 00000000 		.word	0
 663 0038 20000000 		.word	CapSense_debounceButton1
 664 003c 01280000 		.word	10241
 665 0040 0100     		.short	1
 666 0042 01       		.byte	1
 667 0043 01       		.byte	1
 668 0044 10000000 		.word	CapSense_ioList+16
 669 0048 42000000 		.word	CapSense_dsRam+66
 670 004c C6000000 		.word	CapSense_dsRam+198
 671 0050 00000000 		.word	0
 672 0054 1C000000 		.word	CapSense_debounceButton2
 673 0058 01280000 		.word	10241
 674 005c 0100     		.short	1
 675 005e 01       		.byte	1
 676 005f 01       		.byte	1
 677 0060 18000000 		.word	CapSense_ioList+24
 678 0064 50000000 		.word	CapSense_dsRam+80
 679 0068 D0000000 		.word	CapSense_dsRam+208
 680 006c 00000000 		.word	0
 681 0070 18000000 		.word	CapSense_debounceButton3
 682 0074 01280000 		.word	10241
 683 0078 0100     		.short	1
 684 007a 01       		.byte	1
 685 007b 01       		.byte	1
 686 007c 20000000 		.word	CapSense_ioList+32
 687 0080 5E000000 		.word	CapSense_dsRam+94
 688 0084 DA000000 		.word	CapSense_dsRam+218
 689 0088 00000000 		.word	0
 690 008c 14000000 		.word	CapSense_debounceButton4
 691 0090 01280000 		.word	10241
 692 0094 0100     		.short	1
 693 0096 01       		.byte	1
 694 0097 01       		.byte	1
 695 0098 28000000 		.word	CapSense_ioList+40
 696 009c 6C000000 		.word	CapSense_dsRam+108
 697 00a0 E4000000 		.word	CapSense_dsRam+228
 698 00a4 00000000 		.word	0
 699 00a8 10000000 		.word	CapSense_debounceButton5
 700 00ac 01280000 		.word	10241
 701 00b0 0100     		.short	1
 702 00b2 01       		.byte	1
 703 00b3 01       		.byte	1
 704 00b4 30000000 		.word	CapSense_ioList+48
 705 00b8 7A000000 		.word	CapSense_dsRam+122
 706 00bc EE000000 		.word	CapSense_dsRam+238
 707 00c0 00000000 		.word	0
 708 00c4 0C000000 		.word	CapSense_debounceButton6
 709 00c8 01280000 		.word	10241
 710 00cc 0100     		.short	1
 711 00ce 01       		.byte	1
ARM GAS  C:\Users\User\AppData\Local\Temp\ccRgzybA.s 			page 35


 712 00cf 01       		.byte	1
 713 00d0 38000000 		.word	CapSense_ioList+56
 714 00d4 88000000 		.word	CapSense_dsRam+136
 715 00d8 F8000000 		.word	CapSense_dsRam+248
 716 00dc 00000000 		.word	0
 717 00e0 08000000 		.word	CapSense_debounceButton7
 718 00e4 01280000 		.word	10241
 719 00e8 0100     		.short	1
 720 00ea 01       		.byte	1
 721 00eb 01       		.byte	1
 722 00ec 40000000 		.word	CapSense_ioList+64
 723 00f0 96000000 		.word	CapSense_dsRam+150
 724 00f4 02010000 		.word	CapSense_dsRam+258
 725 00f8 00000000 		.word	0
 726 00fc 04000000 		.word	CapSense_debounceButton8
 727 0100 01280000 		.word	10241
 728 0104 0100     		.short	1
 729 0106 01       		.byte	1
 730 0107 01       		.byte	1
 731 0108 48000000 		.word	CapSense_ioList+72
 732 010c A4000000 		.word	CapSense_dsRam+164
 733 0110 0C010000 		.word	CapSense_dsRam+268
 734 0114 00000000 		.word	0
 735 0118 00000000 		.word	CapSense_debounceButton9
 736 011c 01280000 		.word	10241
 737 0120 0100     		.short	1
 738 0122 01       		.byte	1
 739 0123 01       		.byte	1
 740              		.type	CapSense_ramWidgetInit, %object
 741              		.size	CapSense_ramWidgetInit, 140
 742              	CapSense_ramWidgetInit:
 743 0124 1000     		.short	16
 744 0126 A00F     		.short	4000
 745 0128 C8       		.byte	-56
 746 0129 C8       		.byte	-56
 747 012a 0A       		.byte	10
 748 012b 03       		.byte	3
 749 012c 1E       		.byte	30
 750 012d 20       		.byte	32
 751 012e 1000     		.short	16
 752 0130 00       		.byte	0
 753 0131 00       		.space	1
 754 0132 1000     		.short	16
 755 0134 A00F     		.short	4000
 756 0136 C8       		.byte	-56
 757 0137 C8       		.byte	-56
 758 0138 0A       		.byte	10
 759 0139 03       		.byte	3
 760 013a 1E       		.byte	30
 761 013b 20       		.byte	32
 762 013c 1000     		.short	16
 763 013e 00       		.byte	0
 764 013f 00       		.space	1
 765 0140 1000     		.short	16
 766 0142 A00F     		.short	4000
 767 0144 C8       		.byte	-56
 768 0145 C8       		.byte	-56
ARM GAS  C:\Users\User\AppData\Local\Temp\ccRgzybA.s 			page 36


 769 0146 0A       		.byte	10
 770 0147 03       		.byte	3
 771 0148 1E       		.byte	30
 772 0149 20       		.byte	32
 773 014a 1000     		.short	16
 774 014c 00       		.byte	0
 775 014d 00       		.space	1
 776 014e 1000     		.short	16
 777 0150 A00F     		.short	4000
 778 0152 C8       		.byte	-56
 779 0153 C8       		.byte	-56
 780 0154 0A       		.byte	10
 781 0155 03       		.byte	3
 782 0156 1E       		.byte	30
 783 0157 20       		.byte	32
 784 0158 1000     		.short	16
 785 015a 00       		.byte	0
 786 015b 00       		.space	1
 787 015c 1000     		.short	16
 788 015e A00F     		.short	4000
 789 0160 C8       		.byte	-56
 790 0161 C8       		.byte	-56
 791 0162 0A       		.byte	10
 792 0163 03       		.byte	3
 793 0164 1E       		.byte	30
 794 0165 20       		.byte	32
 795 0166 1000     		.short	16
 796 0168 00       		.byte	0
 797 0169 00       		.space	1
 798 016a 1000     		.short	16
 799 016c A00F     		.short	4000
 800 016e C8       		.byte	-56
 801 016f C8       		.byte	-56
 802 0170 0A       		.byte	10
 803 0171 03       		.byte	3
 804 0172 1E       		.byte	30
 805 0173 20       		.byte	32
 806 0174 1000     		.short	16
 807 0176 00       		.byte	0
 808 0177 00       		.space	1
 809 0178 1000     		.short	16
 810 017a A00F     		.short	4000
 811 017c C8       		.byte	-56
 812 017d C8       		.byte	-56
 813 017e 0A       		.byte	10
 814 017f 03       		.byte	3
 815 0180 1E       		.byte	30
 816 0181 20       		.byte	32
 817 0182 1000     		.short	16
 818 0184 00       		.byte	0
 819 0185 00       		.space	1
 820 0186 1000     		.short	16
 821 0188 A00F     		.short	4000
 822 018a C8       		.byte	-56
 823 018b C8       		.byte	-56
 824 018c 0A       		.byte	10
 825 018d 03       		.byte	3
ARM GAS  C:\Users\User\AppData\Local\Temp\ccRgzybA.s 			page 37


 826 018e 1E       		.byte	30
 827 018f 20       		.byte	32
 828 0190 1000     		.short	16
 829 0192 00       		.byte	0
 830 0193 00       		.space	1
 831 0194 1000     		.short	16
 832 0196 A00F     		.short	4000
 833 0198 C8       		.byte	-56
 834 0199 C8       		.byte	-56
 835 019a 0A       		.byte	10
 836 019b 03       		.byte	3
 837 019c 1E       		.byte	30
 838 019d 20       		.byte	32
 839 019e 1000     		.short	16
 840 01a0 00       		.byte	0
 841 01a1 00       		.space	1
 842 01a2 1000     		.short	16
 843 01a4 A00F     		.short	4000
 844 01a6 C8       		.byte	-56
 845 01a7 C8       		.byte	-56
 846 01a8 0A       		.byte	10
 847 01a9 03       		.byte	3
 848 01aa 1E       		.byte	30
 849 01ab 20       		.byte	32
 850 01ac 1000     		.short	16
 851 01ae 00       		.byte	0
 852 01af 00       		.space	1
 853              		.type	CapSense_ioList, %object
 854              		.size	CapSense_ioList, 80
 855              	CapSense_ioList:
 856 01b0 80043240 		.word	1077019776
 857 01b4 00       		.byte	0
 858 01b5 000000   		.space	3
 859 01b8 80043240 		.word	1077019776
 860 01bc 01       		.byte	1
 861 01bd 000000   		.space	3
 862 01c0 80043240 		.word	1077019776
 863 01c4 02       		.byte	2
 864 01c5 000000   		.space	3
 865 01c8 00053240 		.word	1077019904
 866 01cc 02       		.byte	2
 867 01cd 000000   		.space	3
 868 01d0 80043240 		.word	1077019776
 869 01d4 04       		.byte	4
 870 01d5 000000   		.space	3
 871 01d8 80043240 		.word	1077019776
 872 01dc 05       		.byte	5
 873 01dd 000000   		.space	3
 874 01e0 80043240 		.word	1077019776
 875 01e4 06       		.byte	6
 876 01e5 000000   		.space	3
 877 01e8 80043240 		.word	1077019776
 878 01ec 07       		.byte	7
 879 01ed 000000   		.space	3
 880 01f0 00053240 		.word	1077019904
 881 01f4 00       		.byte	0
 882 01f5 000000   		.space	3
ARM GAS  C:\Users\User\AppData\Local\Temp\ccRgzybA.s 			page 38


 883 01f8 00053240 		.word	1077019904
 884 01fc 01       		.byte	1
 885 01fd 000000   		.space	3
 886              		.section	.rodata.str1.4,"aMS",%progbits,1
 887              		.align	2
 888              	.LC6:
 889 0000 47656E65 		.ascii	"Generated_Source\\PSoC6\\CapSense_Structure.c\000"
 889      72617465 
 889      645F536F 
 889      75726365 
 889      5C50536F 
 890              		.bss
 891              		.align	2
 892              		.type	CapSense_debounceButton9, %object
 893              		.size	CapSense_debounceButton9, 1
 894              	CapSense_debounceButton9:
 895 0000 00       		.space	1
 896 0001 000000   		.space	3
 897              		.type	CapSense_debounceButton8, %object
 898              		.size	CapSense_debounceButton8, 1
 899              	CapSense_debounceButton8:
 900 0004 00       		.space	1
 901 0005 000000   		.space	3
 902              		.type	CapSense_debounceButton7, %object
 903              		.size	CapSense_debounceButton7, 1
 904              	CapSense_debounceButton7:
 905 0008 00       		.space	1
 906 0009 000000   		.space	3
 907              		.type	CapSense_debounceButton6, %object
 908              		.size	CapSense_debounceButton6, 1
 909              	CapSense_debounceButton6:
 910 000c 00       		.space	1
 911 000d 000000   		.space	3
 912              		.type	CapSense_debounceButton5, %object
 913              		.size	CapSense_debounceButton5, 1
 914              	CapSense_debounceButton5:
 915 0010 00       		.space	1
 916 0011 000000   		.space	3
 917              		.type	CapSense_debounceButton4, %object
 918              		.size	CapSense_debounceButton4, 1
 919              	CapSense_debounceButton4:
 920 0014 00       		.space	1
 921 0015 000000   		.space	3
 922              		.type	CapSense_debounceButton3, %object
 923              		.size	CapSense_debounceButton3, 1
 924              	CapSense_debounceButton3:
 925 0018 00       		.space	1
 926 0019 000000   		.space	3
 927              		.type	CapSense_debounceButton2, %object
 928              		.size	CapSense_debounceButton2, 1
 929              	CapSense_debounceButton2:
 930 001c 00       		.space	1
 931 001d 000000   		.space	3
 932              		.type	CapSense_debounceButton1, %object
 933              		.size	CapSense_debounceButton1, 1
 934              	CapSense_debounceButton1:
 935 0020 00       		.space	1
ARM GAS  C:\Users\User\AppData\Local\Temp\ccRgzybA.s 			page 39


 936 0021 000000   		.space	3
 937              		.type	CapSense_debounceButton0, %object
 938              		.size	CapSense_debounceButton0, 1
 939              	CapSense_debounceButton0:
 940 0024 00       		.space	1
 941              		.text
 942              	.Letext0:
 943              		.file 2 "d:\\cypress creator\\psoc creator\\4.2\\psoc creator\\import\\gnu\\arm\\5.4.1\\arm-none-e
 944              		.file 3 "d:\\cypress creator\\psoc creator\\4.2\\psoc creator\\import\\gnu\\arm\\5.4.1\\arm-none-e
 945              		.file 4 "Generated_Source\\PSoC6\\pdl\\devices/psoc6/ip/cyip_gpio.h"
 946              		.file 5 "Generated_Source\\PSoC6\\pdl\\drivers/peripheral/syslib/cy_syslib.h"
 947              		.file 6 "Generated_Source\\PSoC6\\CapSense_Configuration.h"
 948              		.file 7 "Generated_Source\\PSoC6\\CapSense_Structure.h"