ARM GAS  C:\Users\User\AppData\Local\Temp\cczL1flU.s 			page 1


   1              		.syntax unified
   2              		.cpu cortex-m4
   3              		.eabi_attribute 27, 1
   4              		.fpu fpv4-sp-d16
   5              		.eabi_attribute 20, 1
   6              		.eabi_attribute 21, 1
   7              		.eabi_attribute 23, 3
   8              		.eabi_attribute 24, 1
   9              		.eabi_attribute 25, 1
  10              		.eabi_attribute 26, 1
  11              		.eabi_attribute 30, 1
  12              		.eabi_attribute 34, 1
  13              		.eabi_attribute 18, 4
  14              		.thumb
  15              		.syntax unified
  16              		.file	"CapSense_Structure.c"
  17              		.text
  18              	.Ltext0:
  19              		.cfi_sections	.debug_frame
  20              		.section	.text.DsParseParamId,"ax",%progbits
  21              		.align	2
  22              		.thumb
  23              		.thumb_func
  24              		.type	DsParseParamId, %function
  25              	DsParseParamId:
  26              	.LFB126:
  27              		.file 1 "Generated_Source\\PSoC6\\CapSense_Structure.c"
   1:Generated_Source\PSoC6/CapSense_Structure.c **** /***************************************************************************//**
   2:Generated_Source\PSoC6/CapSense_Structure.c **** * \file CapSense_Structure.c
   3:Generated_Source\PSoC6/CapSense_Structure.c **** * \version 2.0
   4:Generated_Source\PSoC6/CapSense_Structure.c **** *
   5:Generated_Source\PSoC6/CapSense_Structure.c **** * \brief
   6:Generated_Source\PSoC6/CapSense_Structure.c **** *   This file defines the data structure global variables and provides implementation
   7:Generated_Source\PSoC6/CapSense_Structure.c **** *   for the high-level and low-level APIs of the Data Structure module.
   8:Generated_Source\PSoC6/CapSense_Structure.c **** *
   9:Generated_Source\PSoC6/CapSense_Structure.c **** * \see CapSense v2.0 Datasheet
  10:Generated_Source\PSoC6/CapSense_Structure.c **** *
  11:Generated_Source\PSoC6/CapSense_Structure.c **** *//*****************************************************************************
  12:Generated_Source\PSoC6/CapSense_Structure.c **** * Copyright (2016-2017), Cypress Semiconductor Corporation.
  13:Generated_Source\PSoC6/CapSense_Structure.c **** ********************************************************************************
  14:Generated_Source\PSoC6/CapSense_Structure.c **** * This software is owned by Cypress Semiconductor Corporation (Cypress) and is
  15:Generated_Source\PSoC6/CapSense_Structure.c **** * protected by and subject to worldwide patent protection (United States and
  16:Generated_Source\PSoC6/CapSense_Structure.c **** * foreign), United States copyright laws and international treaty provisions.
  17:Generated_Source\PSoC6/CapSense_Structure.c **** * Cypress hereby grants to licensee a personal, non-exclusive, non-transferable
  18:Generated_Source\PSoC6/CapSense_Structure.c **** * license to copy, use, modify, create derivative works of, and compile the
  19:Generated_Source\PSoC6/CapSense_Structure.c **** * Cypress Source Code and derivative works for the sole purpose of creating
  20:Generated_Source\PSoC6/CapSense_Structure.c **** * custom software in support of licensee product to be used only in conjunction
  21:Generated_Source\PSoC6/CapSense_Structure.c **** * with a Cypress integrated circuit as specified in the applicable agreement.
  22:Generated_Source\PSoC6/CapSense_Structure.c **** * Any reproduction, modification, translation, compilation, or representation of
  23:Generated_Source\PSoC6/CapSense_Structure.c **** * this software except as specified above is prohibited without the express
  24:Generated_Source\PSoC6/CapSense_Structure.c **** * written permission of Cypress.
  25:Generated_Source\PSoC6/CapSense_Structure.c **** *
  26:Generated_Source\PSoC6/CapSense_Structure.c **** * Disclaimer: CYPRESS MAKES NO WARRANTY OF ANY KIND, EXPRESS OR IMPLIED, WITH
  27:Generated_Source\PSoC6/CapSense_Structure.c **** * REGARD TO THIS MATERIAL, INCLUDING, BUT NOT LIMITED TO, THE IMPLIED
  28:Generated_Source\PSoC6/CapSense_Structure.c **** * WARRANTIES OF MERCHANTABILITY AND FITNESS FOR A PARTICULAR PURPOSE.
  29:Generated_Source\PSoC6/CapSense_Structure.c **** * Cypress reserves the right to make changes without further notice to the
  30:Generated_Source\PSoC6/CapSense_Structure.c **** * materials described herein. Cypress does not assume any liability arising out
ARM GAS  C:\Users\User\AppData\Local\Temp\cczL1flU.s 			page 2


  31:Generated_Source\PSoC6/CapSense_Structure.c **** * of the application or use of any product or circuit described herein. Cypress
  32:Generated_Source\PSoC6/CapSense_Structure.c **** * does not authorize its products for use as critical components in life-support
  33:Generated_Source\PSoC6/CapSense_Structure.c **** * systems where a malfunction or failure may reasonably be expected to result in
  34:Generated_Source\PSoC6/CapSense_Structure.c **** * significant injury to the user. The inclusion of Cypress' product in a life-
  35:Generated_Source\PSoC6/CapSense_Structure.c **** * support systems application implies that the manufacturer assumes all risk of
  36:Generated_Source\PSoC6/CapSense_Structure.c **** * such use and in doing so indemnifies Cypress against all charges. Use may be
  37:Generated_Source\PSoC6/CapSense_Structure.c **** * limited by and subject to the applicable Cypress software license agreement.
  38:Generated_Source\PSoC6/CapSense_Structure.c **** *******************************************************************************/
  39:Generated_Source\PSoC6/CapSense_Structure.c **** 
  40:Generated_Source\PSoC6/CapSense_Structure.c **** #include "syslib/cy_syslib.h"
  41:Generated_Source\PSoC6/CapSense_Structure.c **** #include <stddef.h>
  42:Generated_Source\PSoC6/CapSense_Structure.c **** #include <string.h>
  43:Generated_Source\PSoC6/CapSense_Structure.c **** #include "cyfitter_gpio.h"
  44:Generated_Source\PSoC6/CapSense_Structure.c **** 
  45:Generated_Source\PSoC6/CapSense_Structure.c **** #include "CapSense_Structure.h"
  46:Generated_Source\PSoC6/CapSense_Structure.c **** #include "CapSense_Configuration.h"
  47:Generated_Source\PSoC6/CapSense_Structure.c **** 
  48:Generated_Source\PSoC6/CapSense_Structure.c **** #if (0u != CapSense_ADC_EN)
  49:Generated_Source\PSoC6/CapSense_Structure.c ****     #include "CapSense_Adc.h"
  50:Generated_Source\PSoC6/CapSense_Structure.c **** #endif /* (0u != CapSense_ADC_EN) */
  51:Generated_Source\PSoC6/CapSense_Structure.c **** 
  52:Generated_Source\PSoC6/CapSense_Structure.c **** #if (CapSense_ENABLE == CapSense_SELF_TEST_EN)
  53:Generated_Source\PSoC6/CapSense_Structure.c ****     #include "CapSense_SelfTest.h"
  54:Generated_Source\PSoC6/CapSense_Structure.c **** #endif
  55:Generated_Source\PSoC6/CapSense_Structure.c **** 
  56:Generated_Source\PSoC6/CapSense_Structure.c **** #if (CapSense_ENABLE == CapSense_CENTROID_5X5_CSD_EN)
  57:Generated_Source\PSoC6/CapSense_Structure.c ****     #include "CapSense_AdvancedCentroid_LL.h"
  58:Generated_Source\PSoC6/CapSense_Structure.c **** #endif
  59:Generated_Source\PSoC6/CapSense_Structure.c **** 
  60:Generated_Source\PSoC6/CapSense_Structure.c **** #if (CapSense_ENABLE == CapSense_GES_GLOBAL_EN)
  61:Generated_Source\PSoC6/CapSense_Structure.c ****     #include "CapSense_Gesture.h"
  62:Generated_Source\PSoC6/CapSense_Structure.c **** #endif /* (CapSense_ENABLE == CapSense_GES_GLOBAL_EN) */
  63:Generated_Source\PSoC6/CapSense_Structure.c **** 
  64:Generated_Source\PSoC6/CapSense_Structure.c **** /*******************************************************************************
  65:Generated_Source\PSoC6/CapSense_Structure.c **** * Defines the RAM Data Structure variables and their init data in flash
  66:Generated_Source\PSoC6/CapSense_Structure.c **** *******************************************************************************/
  67:Generated_Source\PSoC6/CapSense_Structure.c **** /**
  68:Generated_Source\PSoC6/CapSense_Structure.c **** * \cond SECTION_GLOBAL_VARIABLES
  69:Generated_Source\PSoC6/CapSense_Structure.c **** * \addtogroup group_global_variables
  70:Generated_Source\PSoC6/CapSense_Structure.c **** * \{
  71:Generated_Source\PSoC6/CapSense_Structure.c **** */
  72:Generated_Source\PSoC6/CapSense_Structure.c **** 
  73:Generated_Source\PSoC6/CapSense_Structure.c **** /**
  74:Generated_Source\PSoC6/CapSense_Structure.c **** * The variable that contains the CapSense configuration, settings and
  75:Generated_Source\PSoC6/CapSense_Structure.c **** * scanning results. CapSense_dsRam represents RAM Data Structure.
  76:Generated_Source\PSoC6/CapSense_Structure.c **** */
  77:Generated_Source\PSoC6/CapSense_Structure.c **** CapSense_RAM_STRUCT CapSense_dsRam;
  78:Generated_Source\PSoC6/CapSense_Structure.c **** /** \}
  79:Generated_Source\PSoC6/CapSense_Structure.c **** * \endcond */
  80:Generated_Source\PSoC6/CapSense_Structure.c **** 
  81:Generated_Source\PSoC6/CapSense_Structure.c **** /*******************************************************************************
  82:Generated_Source\PSoC6/CapSense_Structure.c **** * Declares Widget's De-bounce Counters
  83:Generated_Source\PSoC6/CapSense_Structure.c **** *******************************************************************************/
  84:Generated_Source\PSoC6/CapSense_Structure.c **** static uint8 CapSense_debounceButton0[CapSense_BUTTON0_NUM_SENSORS];
  85:Generated_Source\PSoC6/CapSense_Structure.c **** static uint8 CapSense_debounceButton1[CapSense_BUTTON1_NUM_SENSORS];
  86:Generated_Source\PSoC6/CapSense_Structure.c **** static uint8 CapSense_debounceButton2[CapSense_BUTTON2_NUM_SENSORS];
  87:Generated_Source\PSoC6/CapSense_Structure.c **** static uint8 CapSense_debounceButton3[CapSense_BUTTON3_NUM_SENSORS];
ARM GAS  C:\Users\User\AppData\Local\Temp\cczL1flU.s 			page 3


  88:Generated_Source\PSoC6/CapSense_Structure.c **** static uint8 CapSense_debounceButton4[CapSense_BUTTON4_NUM_SENSORS];
  89:Generated_Source\PSoC6/CapSense_Structure.c **** static uint8 CapSense_debounceButton5[CapSense_BUTTON5_NUM_SENSORS];
  90:Generated_Source\PSoC6/CapSense_Structure.c **** static uint8 CapSense_debounceButton6[CapSense_BUTTON6_NUM_SENSORS];
  91:Generated_Source\PSoC6/CapSense_Structure.c **** static uint8 CapSense_debounceButton7[CapSense_BUTTON7_NUM_SENSORS];
  92:Generated_Source\PSoC6/CapSense_Structure.c **** static uint8 CapSense_debounceButton8[CapSense_BUTTON8_NUM_SENSORS];
  93:Generated_Source\PSoC6/CapSense_Structure.c **** static uint8 CapSense_debounceButton9[CapSense_BUTTON9_NUM_SENSORS];
  94:Generated_Source\PSoC6/CapSense_Structure.c **** 
  95:Generated_Source\PSoC6/CapSense_Structure.c **** 
  96:Generated_Source\PSoC6/CapSense_Structure.c **** /*******************************************************************************
  97:Generated_Source\PSoC6/CapSense_Structure.c **** * Defines and initializes the Flash Data Structure
  98:Generated_Source\PSoC6/CapSense_Structure.c **** *******************************************************************************/
  99:Generated_Source\PSoC6/CapSense_Structure.c **** 
 100:Generated_Source\PSoC6/CapSense_Structure.c **** 
 101:Generated_Source\PSoC6/CapSense_Structure.c **** 
 102:Generated_Source\PSoC6/CapSense_Structure.c **** /**
 103:Generated_Source\PSoC6/CapSense_Structure.c **** * \cond SECTION_API_CONSTANTS
 104:Generated_Source\PSoC6/CapSense_Structure.c **** * \addtogroup group_api_constants
 105:Generated_Source\PSoC6/CapSense_Structure.c **** * \{
 106:Generated_Source\PSoC6/CapSense_Structure.c **** */
 107:Generated_Source\PSoC6/CapSense_Structure.c **** /**
 108:Generated_Source\PSoC6/CapSense_Structure.c **** * Constant for the FLASH Data Structure
 109:Generated_Source\PSoC6/CapSense_Structure.c **** */
 110:Generated_Source\PSoC6/CapSense_Structure.c **** const CapSense_FLASH_STRUCT CapSense_dsFlash =
 111:Generated_Source\PSoC6/CapSense_Structure.c **** {
 112:Generated_Source\PSoC6/CapSense_Structure.c ****     /* Flash Widget Initialization Data */
 113:Generated_Source\PSoC6/CapSense_Structure.c ****     {
 114:Generated_Source\PSoC6/CapSense_Structure.c ****         { /* Button0 */
 115:Generated_Source\PSoC6/CapSense_Structure.c ****             &CapSense_ioList[0u],
 116:Generated_Source\PSoC6/CapSense_Structure.c ****             (void *)&CapSense_dsRam.wdgtList.button0,
 117:Generated_Source\PSoC6/CapSense_Structure.c ****             CapSense_dsRam.snsList.button0,
 118:Generated_Source\PSoC6/CapSense_Structure.c ****             (void *)0u,
 119:Generated_Source\PSoC6/CapSense_Structure.c ****             CapSense_debounceButton0,
 120:Generated_Source\PSoC6/CapSense_Structure.c ****             CapSense_BUTTON0_STATIC_CONFIG,
 121:Generated_Source\PSoC6/CapSense_Structure.c ****             CapSense_BUTTON0_NUM_SENSORS,
 122:Generated_Source\PSoC6/CapSense_Structure.c ****             (uint8)CapSense_WD_BUTTON_E,
 123:Generated_Source\PSoC6/CapSense_Structure.c ****             CapSense_BUTTON0_NUM_SENSORS,
 124:Generated_Source\PSoC6/CapSense_Structure.c ****         },
 125:Generated_Source\PSoC6/CapSense_Structure.c ****         { /* Button1 */
 126:Generated_Source\PSoC6/CapSense_Structure.c ****             &CapSense_ioList[1u],
 127:Generated_Source\PSoC6/CapSense_Structure.c ****             (void *)&CapSense_dsRam.wdgtList.button1,
 128:Generated_Source\PSoC6/CapSense_Structure.c ****             CapSense_dsRam.snsList.button1,
 129:Generated_Source\PSoC6/CapSense_Structure.c ****             (void *)0u,
 130:Generated_Source\PSoC6/CapSense_Structure.c ****             CapSense_debounceButton1,
 131:Generated_Source\PSoC6/CapSense_Structure.c ****             CapSense_BUTTON1_STATIC_CONFIG,
 132:Generated_Source\PSoC6/CapSense_Structure.c ****             CapSense_BUTTON1_NUM_SENSORS,
 133:Generated_Source\PSoC6/CapSense_Structure.c ****             (uint8)CapSense_WD_BUTTON_E,
 134:Generated_Source\PSoC6/CapSense_Structure.c ****             CapSense_BUTTON1_NUM_SENSORS,
 135:Generated_Source\PSoC6/CapSense_Structure.c ****         },
 136:Generated_Source\PSoC6/CapSense_Structure.c ****         { /* Button2 */
 137:Generated_Source\PSoC6/CapSense_Structure.c ****             &CapSense_ioList[2u],
 138:Generated_Source\PSoC6/CapSense_Structure.c ****             (void *)&CapSense_dsRam.wdgtList.button2,
 139:Generated_Source\PSoC6/CapSense_Structure.c ****             CapSense_dsRam.snsList.button2,
 140:Generated_Source\PSoC6/CapSense_Structure.c ****             (void *)0u,
 141:Generated_Source\PSoC6/CapSense_Structure.c ****             CapSense_debounceButton2,
 142:Generated_Source\PSoC6/CapSense_Structure.c ****             CapSense_BUTTON2_STATIC_CONFIG,
 143:Generated_Source\PSoC6/CapSense_Structure.c ****             CapSense_BUTTON2_NUM_SENSORS,
 144:Generated_Source\PSoC6/CapSense_Structure.c ****             (uint8)CapSense_WD_BUTTON_E,
ARM GAS  C:\Users\User\AppData\Local\Temp\cczL1flU.s 			page 4


 145:Generated_Source\PSoC6/CapSense_Structure.c ****             CapSense_BUTTON2_NUM_SENSORS,
 146:Generated_Source\PSoC6/CapSense_Structure.c ****         },
 147:Generated_Source\PSoC6/CapSense_Structure.c ****         { /* Button3 */
 148:Generated_Source\PSoC6/CapSense_Structure.c ****             &CapSense_ioList[3u],
 149:Generated_Source\PSoC6/CapSense_Structure.c ****             (void *)&CapSense_dsRam.wdgtList.button3,
 150:Generated_Source\PSoC6/CapSense_Structure.c ****             CapSense_dsRam.snsList.button3,
 151:Generated_Source\PSoC6/CapSense_Structure.c ****             (void *)0u,
 152:Generated_Source\PSoC6/CapSense_Structure.c ****             CapSense_debounceButton3,
 153:Generated_Source\PSoC6/CapSense_Structure.c ****             CapSense_BUTTON3_STATIC_CONFIG,
 154:Generated_Source\PSoC6/CapSense_Structure.c ****             CapSense_BUTTON3_NUM_SENSORS,
 155:Generated_Source\PSoC6/CapSense_Structure.c ****             (uint8)CapSense_WD_BUTTON_E,
 156:Generated_Source\PSoC6/CapSense_Structure.c ****             CapSense_BUTTON3_NUM_SENSORS,
 157:Generated_Source\PSoC6/CapSense_Structure.c ****         },
 158:Generated_Source\PSoC6/CapSense_Structure.c ****         { /* Button4 */
 159:Generated_Source\PSoC6/CapSense_Structure.c ****             &CapSense_ioList[4u],
 160:Generated_Source\PSoC6/CapSense_Structure.c ****             (void *)&CapSense_dsRam.wdgtList.button4,
 161:Generated_Source\PSoC6/CapSense_Structure.c ****             CapSense_dsRam.snsList.button4,
 162:Generated_Source\PSoC6/CapSense_Structure.c ****             (void *)0u,
 163:Generated_Source\PSoC6/CapSense_Structure.c ****             CapSense_debounceButton4,
 164:Generated_Source\PSoC6/CapSense_Structure.c ****             CapSense_BUTTON4_STATIC_CONFIG,
 165:Generated_Source\PSoC6/CapSense_Structure.c ****             CapSense_BUTTON4_NUM_SENSORS,
 166:Generated_Source\PSoC6/CapSense_Structure.c ****             (uint8)CapSense_WD_BUTTON_E,
 167:Generated_Source\PSoC6/CapSense_Structure.c ****             CapSense_BUTTON4_NUM_SENSORS,
 168:Generated_Source\PSoC6/CapSense_Structure.c ****         },
 169:Generated_Source\PSoC6/CapSense_Structure.c ****         { /* Button5 */
 170:Generated_Source\PSoC6/CapSense_Structure.c ****             &CapSense_ioList[5u],
 171:Generated_Source\PSoC6/CapSense_Structure.c ****             (void *)&CapSense_dsRam.wdgtList.button5,
 172:Generated_Source\PSoC6/CapSense_Structure.c ****             CapSense_dsRam.snsList.button5,
 173:Generated_Source\PSoC6/CapSense_Structure.c ****             (void *)0u,
 174:Generated_Source\PSoC6/CapSense_Structure.c ****             CapSense_debounceButton5,
 175:Generated_Source\PSoC6/CapSense_Structure.c ****             CapSense_BUTTON5_STATIC_CONFIG,
 176:Generated_Source\PSoC6/CapSense_Structure.c ****             CapSense_BUTTON5_NUM_SENSORS,
 177:Generated_Source\PSoC6/CapSense_Structure.c ****             (uint8)CapSense_WD_BUTTON_E,
 178:Generated_Source\PSoC6/CapSense_Structure.c ****             CapSense_BUTTON5_NUM_SENSORS,
 179:Generated_Source\PSoC6/CapSense_Structure.c ****         },
 180:Generated_Source\PSoC6/CapSense_Structure.c ****         { /* Button6 */
 181:Generated_Source\PSoC6/CapSense_Structure.c ****             &CapSense_ioList[6u],
 182:Generated_Source\PSoC6/CapSense_Structure.c ****             (void *)&CapSense_dsRam.wdgtList.button6,
 183:Generated_Source\PSoC6/CapSense_Structure.c ****             CapSense_dsRam.snsList.button6,
 184:Generated_Source\PSoC6/CapSense_Structure.c ****             (void *)0u,
 185:Generated_Source\PSoC6/CapSense_Structure.c ****             CapSense_debounceButton6,
 186:Generated_Source\PSoC6/CapSense_Structure.c ****             CapSense_BUTTON6_STATIC_CONFIG,
 187:Generated_Source\PSoC6/CapSense_Structure.c ****             CapSense_BUTTON6_NUM_SENSORS,
 188:Generated_Source\PSoC6/CapSense_Structure.c ****             (uint8)CapSense_WD_BUTTON_E,
 189:Generated_Source\PSoC6/CapSense_Structure.c ****             CapSense_BUTTON6_NUM_SENSORS,
 190:Generated_Source\PSoC6/CapSense_Structure.c ****         },
 191:Generated_Source\PSoC6/CapSense_Structure.c ****         { /* Button7 */
 192:Generated_Source\PSoC6/CapSense_Structure.c ****             &CapSense_ioList[7u],
 193:Generated_Source\PSoC6/CapSense_Structure.c ****             (void *)&CapSense_dsRam.wdgtList.button7,
 194:Generated_Source\PSoC6/CapSense_Structure.c ****             CapSense_dsRam.snsList.button7,
 195:Generated_Source\PSoC6/CapSense_Structure.c ****             (void *)0u,
 196:Generated_Source\PSoC6/CapSense_Structure.c ****             CapSense_debounceButton7,
 197:Generated_Source\PSoC6/CapSense_Structure.c ****             CapSense_BUTTON7_STATIC_CONFIG,
 198:Generated_Source\PSoC6/CapSense_Structure.c ****             CapSense_BUTTON7_NUM_SENSORS,
 199:Generated_Source\PSoC6/CapSense_Structure.c ****             (uint8)CapSense_WD_BUTTON_E,
 200:Generated_Source\PSoC6/CapSense_Structure.c ****             CapSense_BUTTON7_NUM_SENSORS,
 201:Generated_Source\PSoC6/CapSense_Structure.c ****         },
ARM GAS  C:\Users\User\AppData\Local\Temp\cczL1flU.s 			page 5


 202:Generated_Source\PSoC6/CapSense_Structure.c ****         { /* Button8 */
 203:Generated_Source\PSoC6/CapSense_Structure.c ****             &CapSense_ioList[8u],
 204:Generated_Source\PSoC6/CapSense_Structure.c ****             (void *)&CapSense_dsRam.wdgtList.button8,
 205:Generated_Source\PSoC6/CapSense_Structure.c ****             CapSense_dsRam.snsList.button8,
 206:Generated_Source\PSoC6/CapSense_Structure.c ****             (void *)0u,
 207:Generated_Source\PSoC6/CapSense_Structure.c ****             CapSense_debounceButton8,
 208:Generated_Source\PSoC6/CapSense_Structure.c ****             CapSense_BUTTON8_STATIC_CONFIG,
 209:Generated_Source\PSoC6/CapSense_Structure.c ****             CapSense_BUTTON8_NUM_SENSORS,
 210:Generated_Source\PSoC6/CapSense_Structure.c ****             (uint8)CapSense_WD_BUTTON_E,
 211:Generated_Source\PSoC6/CapSense_Structure.c ****             CapSense_BUTTON8_NUM_SENSORS,
 212:Generated_Source\PSoC6/CapSense_Structure.c ****         },
 213:Generated_Source\PSoC6/CapSense_Structure.c ****         { /* Button9 */
 214:Generated_Source\PSoC6/CapSense_Structure.c ****             &CapSense_ioList[9u],
 215:Generated_Source\PSoC6/CapSense_Structure.c ****             (void *)&CapSense_dsRam.wdgtList.button9,
 216:Generated_Source\PSoC6/CapSense_Structure.c ****             CapSense_dsRam.snsList.button9,
 217:Generated_Source\PSoC6/CapSense_Structure.c ****             (void *)0u,
 218:Generated_Source\PSoC6/CapSense_Structure.c ****             CapSense_debounceButton9,
 219:Generated_Source\PSoC6/CapSense_Structure.c ****             CapSense_BUTTON9_STATIC_CONFIG,
 220:Generated_Source\PSoC6/CapSense_Structure.c ****             CapSense_BUTTON9_NUM_SENSORS,
 221:Generated_Source\PSoC6/CapSense_Structure.c ****             (uint8)CapSense_WD_BUTTON_E,
 222:Generated_Source\PSoC6/CapSense_Structure.c ****             CapSense_BUTTON9_NUM_SENSORS,
 223:Generated_Source\PSoC6/CapSense_Structure.c ****         },
 224:Generated_Source\PSoC6/CapSense_Structure.c ****     },
 225:Generated_Source\PSoC6/CapSense_Structure.c **** };
 226:Generated_Source\PSoC6/CapSense_Structure.c **** 
 227:Generated_Source\PSoC6/CapSense_Structure.c **** /**
 228:Generated_Source\PSoC6/CapSense_Structure.c **** * The array of the pointers to the electrode specific register.
 229:Generated_Source\PSoC6/CapSense_Structure.c **** */
 230:Generated_Source\PSoC6/CapSense_Structure.c **** const CapSense_FLASH_IO_STRUCT CapSense_ioList[CapSense_TOTAL_ELECTRODES] =
 231:Generated_Source\PSoC6/CapSense_Structure.c **** {
 232:Generated_Source\PSoC6/CapSense_Structure.c ****     { /* 0: Button0_Sns0 */
 233:Generated_Source\PSoC6/CapSense_Structure.c ****         CapSense_Sns_0_PORT,
 234:Generated_Source\PSoC6/CapSense_Structure.c ****         (uint8)CapSense_Sns_0_NUM,
 235:Generated_Source\PSoC6/CapSense_Structure.c ****     },
 236:Generated_Source\PSoC6/CapSense_Structure.c ****     { /* 1: Button1_Sns0 */
 237:Generated_Source\PSoC6/CapSense_Structure.c ****         CapSense_Sns_1_PORT,
 238:Generated_Source\PSoC6/CapSense_Structure.c ****         (uint8)CapSense_Sns_1_NUM,
 239:Generated_Source\PSoC6/CapSense_Structure.c ****     },
 240:Generated_Source\PSoC6/CapSense_Structure.c ****     { /* 2: Button2_Sns0 */
 241:Generated_Source\PSoC6/CapSense_Structure.c ****         CapSense_Sns_2_PORT,
 242:Generated_Source\PSoC6/CapSense_Structure.c ****         (uint8)CapSense_Sns_2_NUM,
 243:Generated_Source\PSoC6/CapSense_Structure.c ****     },
 244:Generated_Source\PSoC6/CapSense_Structure.c ****     { /* 3: Button3_Sns0 */
 245:Generated_Source\PSoC6/CapSense_Structure.c ****         CapSense_Sns_3_PORT,
 246:Generated_Source\PSoC6/CapSense_Structure.c ****         (uint8)CapSense_Sns_3_NUM,
 247:Generated_Source\PSoC6/CapSense_Structure.c ****     },
 248:Generated_Source\PSoC6/CapSense_Structure.c ****     { /* 4: Button4_Sns0 */
 249:Generated_Source\PSoC6/CapSense_Structure.c ****         CapSense_Sns_4_PORT,
 250:Generated_Source\PSoC6/CapSense_Structure.c ****         (uint8)CapSense_Sns_4_NUM,
 251:Generated_Source\PSoC6/CapSense_Structure.c ****     },
 252:Generated_Source\PSoC6/CapSense_Structure.c ****     { /* 5: Button5_Sns0 */
 253:Generated_Source\PSoC6/CapSense_Structure.c ****         CapSense_Sns_5_PORT,
 254:Generated_Source\PSoC6/CapSense_Structure.c ****         (uint8)CapSense_Sns_5_NUM,
 255:Generated_Source\PSoC6/CapSense_Structure.c ****     },
 256:Generated_Source\PSoC6/CapSense_Structure.c ****     { /* 6: Button6_Sns0 */
 257:Generated_Source\PSoC6/CapSense_Structure.c ****         CapSense_Sns_6_PORT,
 258:Generated_Source\PSoC6/CapSense_Structure.c ****         (uint8)CapSense_Sns_6_NUM,
ARM GAS  C:\Users\User\AppData\Local\Temp\cczL1flU.s 			page 6


 259:Generated_Source\PSoC6/CapSense_Structure.c ****     },
 260:Generated_Source\PSoC6/CapSense_Structure.c ****     { /* 7: Button7_Sns0 */
 261:Generated_Source\PSoC6/CapSense_Structure.c ****         CapSense_Sns_7_PORT,
 262:Generated_Source\PSoC6/CapSense_Structure.c ****         (uint8)CapSense_Sns_7_NUM,
 263:Generated_Source\PSoC6/CapSense_Structure.c ****     },
 264:Generated_Source\PSoC6/CapSense_Structure.c ****     { /* 8: Button8_Sns0 */
 265:Generated_Source\PSoC6/CapSense_Structure.c ****         CapSense_Sns_8_PORT,
 266:Generated_Source\PSoC6/CapSense_Structure.c ****         (uint8)CapSense_Sns_8_NUM,
 267:Generated_Source\PSoC6/CapSense_Structure.c ****     },
 268:Generated_Source\PSoC6/CapSense_Structure.c ****     { /* 9: Button9_Sns0 */
 269:Generated_Source\PSoC6/CapSense_Structure.c ****         CapSense_Sns_9_PORT,
 270:Generated_Source\PSoC6/CapSense_Structure.c ****         (uint8)CapSense_Sns_9_NUM,
 271:Generated_Source\PSoC6/CapSense_Structure.c ****     },
 272:Generated_Source\PSoC6/CapSense_Structure.c **** };
 273:Generated_Source\PSoC6/CapSense_Structure.c **** 
 274:Generated_Source\PSoC6/CapSense_Structure.c **** 
 275:Generated_Source\PSoC6/CapSense_Structure.c **** 
 276:Generated_Source\PSoC6/CapSense_Structure.c **** /** \}
 277:Generated_Source\PSoC6/CapSense_Structure.c **** * \endcond */
 278:Generated_Source\PSoC6/CapSense_Structure.c **** 
 279:Generated_Source\PSoC6/CapSense_Structure.c **** /* Initialization data for RAM widget list */
 280:Generated_Source\PSoC6/CapSense_Structure.c **** const CapSense_RAM_WD_LIST_STRUCT CapSense_ramWidgetInit =
 281:Generated_Source\PSoC6/CapSense_Structure.c **** {
 282:Generated_Source\PSoC6/CapSense_Structure.c ****     { /* Button0 */
 283:Generated_Source\PSoC6/CapSense_Structure.c ****         CapSense_BUTTON0_RESOLUTION,
 284:Generated_Source\PSoC6/CapSense_Structure.c ****         CapSense_BUTTON0_FINGER_TH,
 285:Generated_Source\PSoC6/CapSense_Structure.c ****         CapSense_BUTTON0_NOISE_TH,
 286:Generated_Source\PSoC6/CapSense_Structure.c ****         CapSense_BUTTON0_NNOISE_TH,
 287:Generated_Source\PSoC6/CapSense_Structure.c ****         CapSense_BUTTON0_HYSTERESIS,
 288:Generated_Source\PSoC6/CapSense_Structure.c ****         CapSense_BUTTON0_ON_DEBOUNCE,
 289:Generated_Source\PSoC6/CapSense_Structure.c ****         CapSense_BUTTON0_LOW_BSLN_RST,
 290:Generated_Source\PSoC6/CapSense_Structure.c ****         {
 291:Generated_Source\PSoC6/CapSense_Structure.c ****             CapSense_BUTTON0_IDAC_MOD0,
 292:Generated_Source\PSoC6/CapSense_Structure.c ****         },
 293:Generated_Source\PSoC6/CapSense_Structure.c ****         CapSense_BUTTON0_SNS_CLK,
 294:Generated_Source\PSoC6/CapSense_Structure.c ****         CapSense_BUTTON0_SNS_CLK_SOURCE,
 295:Generated_Source\PSoC6/CapSense_Structure.c ****     },
 296:Generated_Source\PSoC6/CapSense_Structure.c ****     { /* Button1 */
 297:Generated_Source\PSoC6/CapSense_Structure.c ****         CapSense_BUTTON1_RESOLUTION,
 298:Generated_Source\PSoC6/CapSense_Structure.c ****         CapSense_BUTTON1_FINGER_TH,
 299:Generated_Source\PSoC6/CapSense_Structure.c ****         CapSense_BUTTON1_NOISE_TH,
 300:Generated_Source\PSoC6/CapSense_Structure.c ****         CapSense_BUTTON1_NNOISE_TH,
 301:Generated_Source\PSoC6/CapSense_Structure.c ****         CapSense_BUTTON1_HYSTERESIS,
 302:Generated_Source\PSoC6/CapSense_Structure.c ****         CapSense_BUTTON1_ON_DEBOUNCE,
 303:Generated_Source\PSoC6/CapSense_Structure.c ****         CapSense_BUTTON1_LOW_BSLN_RST,
 304:Generated_Source\PSoC6/CapSense_Structure.c ****         {
 305:Generated_Source\PSoC6/CapSense_Structure.c ****             CapSense_BUTTON1_IDAC_MOD0,
 306:Generated_Source\PSoC6/CapSense_Structure.c ****         },
 307:Generated_Source\PSoC6/CapSense_Structure.c ****         CapSense_BUTTON1_SNS_CLK,
 308:Generated_Source\PSoC6/CapSense_Structure.c ****         CapSense_BUTTON1_SNS_CLK_SOURCE,
 309:Generated_Source\PSoC6/CapSense_Structure.c ****     },
 310:Generated_Source\PSoC6/CapSense_Structure.c ****     { /* Button2 */
 311:Generated_Source\PSoC6/CapSense_Structure.c ****         CapSense_BUTTON2_RESOLUTION,
 312:Generated_Source\PSoC6/CapSense_Structure.c ****         CapSense_BUTTON2_FINGER_TH,
 313:Generated_Source\PSoC6/CapSense_Structure.c ****         CapSense_BUTTON2_NOISE_TH,
 314:Generated_Source\PSoC6/CapSense_Structure.c ****         CapSense_BUTTON2_NNOISE_TH,
 315:Generated_Source\PSoC6/CapSense_Structure.c ****         CapSense_BUTTON2_HYSTERESIS,
ARM GAS  C:\Users\User\AppData\Local\Temp\cczL1flU.s 			page 7


 316:Generated_Source\PSoC6/CapSense_Structure.c ****         CapSense_BUTTON2_ON_DEBOUNCE,
 317:Generated_Source\PSoC6/CapSense_Structure.c ****         CapSense_BUTTON2_LOW_BSLN_RST,
 318:Generated_Source\PSoC6/CapSense_Structure.c ****         {
 319:Generated_Source\PSoC6/CapSense_Structure.c ****             CapSense_BUTTON2_IDAC_MOD0,
 320:Generated_Source\PSoC6/CapSense_Structure.c ****         },
 321:Generated_Source\PSoC6/CapSense_Structure.c ****         CapSense_BUTTON2_SNS_CLK,
 322:Generated_Source\PSoC6/CapSense_Structure.c ****         CapSense_BUTTON2_SNS_CLK_SOURCE,
 323:Generated_Source\PSoC6/CapSense_Structure.c ****     },
 324:Generated_Source\PSoC6/CapSense_Structure.c ****     { /* Button3 */
 325:Generated_Source\PSoC6/CapSense_Structure.c ****         CapSense_BUTTON3_RESOLUTION,
 326:Generated_Source\PSoC6/CapSense_Structure.c ****         CapSense_BUTTON3_FINGER_TH,
 327:Generated_Source\PSoC6/CapSense_Structure.c ****         CapSense_BUTTON3_NOISE_TH,
 328:Generated_Source\PSoC6/CapSense_Structure.c ****         CapSense_BUTTON3_NNOISE_TH,
 329:Generated_Source\PSoC6/CapSense_Structure.c ****         CapSense_BUTTON3_HYSTERESIS,
 330:Generated_Source\PSoC6/CapSense_Structure.c ****         CapSense_BUTTON3_ON_DEBOUNCE,
 331:Generated_Source\PSoC6/CapSense_Structure.c ****         CapSense_BUTTON3_LOW_BSLN_RST,
 332:Generated_Source\PSoC6/CapSense_Structure.c ****         {
 333:Generated_Source\PSoC6/CapSense_Structure.c ****             CapSense_BUTTON3_IDAC_MOD0,
 334:Generated_Source\PSoC6/CapSense_Structure.c ****         },
 335:Generated_Source\PSoC6/CapSense_Structure.c ****         CapSense_BUTTON3_SNS_CLK,
 336:Generated_Source\PSoC6/CapSense_Structure.c ****         CapSense_BUTTON3_SNS_CLK_SOURCE,
 337:Generated_Source\PSoC6/CapSense_Structure.c ****     },
 338:Generated_Source\PSoC6/CapSense_Structure.c ****     { /* Button4 */
 339:Generated_Source\PSoC6/CapSense_Structure.c ****         CapSense_BUTTON4_RESOLUTION,
 340:Generated_Source\PSoC6/CapSense_Structure.c ****         CapSense_BUTTON4_FINGER_TH,
 341:Generated_Source\PSoC6/CapSense_Structure.c ****         CapSense_BUTTON4_NOISE_TH,
 342:Generated_Source\PSoC6/CapSense_Structure.c ****         CapSense_BUTTON4_NNOISE_TH,
 343:Generated_Source\PSoC6/CapSense_Structure.c ****         CapSense_BUTTON4_HYSTERESIS,
 344:Generated_Source\PSoC6/CapSense_Structure.c ****         CapSense_BUTTON4_ON_DEBOUNCE,
 345:Generated_Source\PSoC6/CapSense_Structure.c ****         CapSense_BUTTON4_LOW_BSLN_RST,
 346:Generated_Source\PSoC6/CapSense_Structure.c ****         {
 347:Generated_Source\PSoC6/CapSense_Structure.c ****             CapSense_BUTTON4_IDAC_MOD0,
 348:Generated_Source\PSoC6/CapSense_Structure.c ****         },
 349:Generated_Source\PSoC6/CapSense_Structure.c ****         CapSense_BUTTON4_SNS_CLK,
 350:Generated_Source\PSoC6/CapSense_Structure.c ****         CapSense_BUTTON4_SNS_CLK_SOURCE,
 351:Generated_Source\PSoC6/CapSense_Structure.c ****     },
 352:Generated_Source\PSoC6/CapSense_Structure.c ****     { /* Button5 */
 353:Generated_Source\PSoC6/CapSense_Structure.c ****         CapSense_BUTTON5_RESOLUTION,
 354:Generated_Source\PSoC6/CapSense_Structure.c ****         CapSense_BUTTON5_FINGER_TH,
 355:Generated_Source\PSoC6/CapSense_Structure.c ****         CapSense_BUTTON5_NOISE_TH,
 356:Generated_Source\PSoC6/CapSense_Structure.c ****         CapSense_BUTTON5_NNOISE_TH,
 357:Generated_Source\PSoC6/CapSense_Structure.c ****         CapSense_BUTTON5_HYSTERESIS,
 358:Generated_Source\PSoC6/CapSense_Structure.c ****         CapSense_BUTTON5_ON_DEBOUNCE,
 359:Generated_Source\PSoC6/CapSense_Structure.c ****         CapSense_BUTTON5_LOW_BSLN_RST,
 360:Generated_Source\PSoC6/CapSense_Structure.c ****         {
 361:Generated_Source\PSoC6/CapSense_Structure.c ****             CapSense_BUTTON5_IDAC_MOD0,
 362:Generated_Source\PSoC6/CapSense_Structure.c ****         },
 363:Generated_Source\PSoC6/CapSense_Structure.c ****         CapSense_BUTTON5_SNS_CLK,
 364:Generated_Source\PSoC6/CapSense_Structure.c ****         CapSense_BUTTON5_SNS_CLK_SOURCE,
 365:Generated_Source\PSoC6/CapSense_Structure.c ****     },
 366:Generated_Source\PSoC6/CapSense_Structure.c ****     { /* Button6 */
 367:Generated_Source\PSoC6/CapSense_Structure.c ****         CapSense_BUTTON6_RESOLUTION,
 368:Generated_Source\PSoC6/CapSense_Structure.c ****         CapSense_BUTTON6_FINGER_TH,
 369:Generated_Source\PSoC6/CapSense_Structure.c ****         CapSense_BUTTON6_NOISE_TH,
 370:Generated_Source\PSoC6/CapSense_Structure.c ****         CapSense_BUTTON6_NNOISE_TH,
 371:Generated_Source\PSoC6/CapSense_Structure.c ****         CapSense_BUTTON6_HYSTERESIS,
 372:Generated_Source\PSoC6/CapSense_Structure.c ****         CapSense_BUTTON6_ON_DEBOUNCE,
ARM GAS  C:\Users\User\AppData\Local\Temp\cczL1flU.s 			page 8


 373:Generated_Source\PSoC6/CapSense_Structure.c ****         CapSense_BUTTON6_LOW_BSLN_RST,
 374:Generated_Source\PSoC6/CapSense_Structure.c ****         {
 375:Generated_Source\PSoC6/CapSense_Structure.c ****             CapSense_BUTTON6_IDAC_MOD0,
 376:Generated_Source\PSoC6/CapSense_Structure.c ****         },
 377:Generated_Source\PSoC6/CapSense_Structure.c ****         CapSense_BUTTON6_SNS_CLK,
 378:Generated_Source\PSoC6/CapSense_Structure.c ****         CapSense_BUTTON6_SNS_CLK_SOURCE,
 379:Generated_Source\PSoC6/CapSense_Structure.c ****     },
 380:Generated_Source\PSoC6/CapSense_Structure.c ****     { /* Button7 */
 381:Generated_Source\PSoC6/CapSense_Structure.c ****         CapSense_BUTTON7_RESOLUTION,
 382:Generated_Source\PSoC6/CapSense_Structure.c ****         CapSense_BUTTON7_FINGER_TH,
 383:Generated_Source\PSoC6/CapSense_Structure.c ****         CapSense_BUTTON7_NOISE_TH,
 384:Generated_Source\PSoC6/CapSense_Structure.c ****         CapSense_BUTTON7_NNOISE_TH,
 385:Generated_Source\PSoC6/CapSense_Structure.c ****         CapSense_BUTTON7_HYSTERESIS,
 386:Generated_Source\PSoC6/CapSense_Structure.c ****         CapSense_BUTTON7_ON_DEBOUNCE,
 387:Generated_Source\PSoC6/CapSense_Structure.c ****         CapSense_BUTTON7_LOW_BSLN_RST,
 388:Generated_Source\PSoC6/CapSense_Structure.c ****         {
 389:Generated_Source\PSoC6/CapSense_Structure.c ****             CapSense_BUTTON7_IDAC_MOD0,
 390:Generated_Source\PSoC6/CapSense_Structure.c ****         },
 391:Generated_Source\PSoC6/CapSense_Structure.c ****         CapSense_BUTTON7_SNS_CLK,
 392:Generated_Source\PSoC6/CapSense_Structure.c ****         CapSense_BUTTON7_SNS_CLK_SOURCE,
 393:Generated_Source\PSoC6/CapSense_Structure.c ****     },
 394:Generated_Source\PSoC6/CapSense_Structure.c ****     { /* Button8 */
 395:Generated_Source\PSoC6/CapSense_Structure.c ****         CapSense_BUTTON8_RESOLUTION,
 396:Generated_Source\PSoC6/CapSense_Structure.c ****         CapSense_BUTTON8_FINGER_TH,
 397:Generated_Source\PSoC6/CapSense_Structure.c ****         CapSense_BUTTON8_NOISE_TH,
 398:Generated_Source\PSoC6/CapSense_Structure.c ****         CapSense_BUTTON8_NNOISE_TH,
 399:Generated_Source\PSoC6/CapSense_Structure.c ****         CapSense_BUTTON8_HYSTERESIS,
 400:Generated_Source\PSoC6/CapSense_Structure.c ****         CapSense_BUTTON8_ON_DEBOUNCE,
 401:Generated_Source\PSoC6/CapSense_Structure.c ****         CapSense_BUTTON8_LOW_BSLN_RST,
 402:Generated_Source\PSoC6/CapSense_Structure.c ****         {
 403:Generated_Source\PSoC6/CapSense_Structure.c ****             CapSense_BUTTON8_IDAC_MOD0,
 404:Generated_Source\PSoC6/CapSense_Structure.c ****         },
 405:Generated_Source\PSoC6/CapSense_Structure.c ****         CapSense_BUTTON8_SNS_CLK,
 406:Generated_Source\PSoC6/CapSense_Structure.c ****         CapSense_BUTTON8_SNS_CLK_SOURCE,
 407:Generated_Source\PSoC6/CapSense_Structure.c ****     },
 408:Generated_Source\PSoC6/CapSense_Structure.c ****     { /* Button9 */
 409:Generated_Source\PSoC6/CapSense_Structure.c ****         CapSense_BUTTON9_RESOLUTION,
 410:Generated_Source\PSoC6/CapSense_Structure.c ****         CapSense_BUTTON9_FINGER_TH,
 411:Generated_Source\PSoC6/CapSense_Structure.c ****         CapSense_BUTTON9_NOISE_TH,
 412:Generated_Source\PSoC6/CapSense_Structure.c ****         CapSense_BUTTON9_NNOISE_TH,
 413:Generated_Source\PSoC6/CapSense_Structure.c ****         CapSense_BUTTON9_HYSTERESIS,
 414:Generated_Source\PSoC6/CapSense_Structure.c ****         CapSense_BUTTON9_ON_DEBOUNCE,
 415:Generated_Source\PSoC6/CapSense_Structure.c ****         CapSense_BUTTON9_LOW_BSLN_RST,
 416:Generated_Source\PSoC6/CapSense_Structure.c ****         {
 417:Generated_Source\PSoC6/CapSense_Structure.c ****             CapSense_BUTTON9_IDAC_MOD0,
 418:Generated_Source\PSoC6/CapSense_Structure.c ****         },
 419:Generated_Source\PSoC6/CapSense_Structure.c ****         CapSense_BUTTON9_SNS_CLK,
 420:Generated_Source\PSoC6/CapSense_Structure.c ****         CapSense_BUTTON9_SNS_CLK_SOURCE,
 421:Generated_Source\PSoC6/CapSense_Structure.c ****     },
 422:Generated_Source\PSoC6/CapSense_Structure.c **** };
 423:Generated_Source\PSoC6/CapSense_Structure.c **** 
 424:Generated_Source\PSoC6/CapSense_Structure.c **** 
 425:Generated_Source\PSoC6/CapSense_Structure.c **** /* IDAC Initialization Data */
 426:Generated_Source\PSoC6/CapSense_Structure.c **** const uint8 CapSense_ramIdacInit[CapSense_TOTAL_SENSORS] =
 427:Generated_Source\PSoC6/CapSense_Structure.c **** {
 428:Generated_Source\PSoC6/CapSense_Structure.c ****     /* Button0 */
 429:Generated_Source\PSoC6/CapSense_Structure.c ****     CapSense_BUTTON0_SNS0_IDAC_COMP0,
ARM GAS  C:\Users\User\AppData\Local\Temp\cczL1flU.s 			page 9


 430:Generated_Source\PSoC6/CapSense_Structure.c **** 
 431:Generated_Source\PSoC6/CapSense_Structure.c ****     /* Button1 */
 432:Generated_Source\PSoC6/CapSense_Structure.c ****     CapSense_BUTTON1_SNS0_IDAC_COMP0,
 433:Generated_Source\PSoC6/CapSense_Structure.c **** 
 434:Generated_Source\PSoC6/CapSense_Structure.c ****     /* Button2 */
 435:Generated_Source\PSoC6/CapSense_Structure.c ****     CapSense_BUTTON2_SNS0_IDAC_COMP0,
 436:Generated_Source\PSoC6/CapSense_Structure.c **** 
 437:Generated_Source\PSoC6/CapSense_Structure.c ****     /* Button3 */
 438:Generated_Source\PSoC6/CapSense_Structure.c ****     CapSense_BUTTON3_SNS0_IDAC_COMP0,
 439:Generated_Source\PSoC6/CapSense_Structure.c **** 
 440:Generated_Source\PSoC6/CapSense_Structure.c ****     /* Button4 */
 441:Generated_Source\PSoC6/CapSense_Structure.c ****     CapSense_BUTTON4_SNS0_IDAC_COMP0,
 442:Generated_Source\PSoC6/CapSense_Structure.c **** 
 443:Generated_Source\PSoC6/CapSense_Structure.c ****     /* Button5 */
 444:Generated_Source\PSoC6/CapSense_Structure.c ****     CapSense_BUTTON5_SNS0_IDAC_COMP0,
 445:Generated_Source\PSoC6/CapSense_Structure.c **** 
 446:Generated_Source\PSoC6/CapSense_Structure.c ****     /* Button6 */
 447:Generated_Source\PSoC6/CapSense_Structure.c ****     CapSense_BUTTON6_SNS0_IDAC_COMP0,
 448:Generated_Source\PSoC6/CapSense_Structure.c **** 
 449:Generated_Source\PSoC6/CapSense_Structure.c ****     /* Button7 */
 450:Generated_Source\PSoC6/CapSense_Structure.c ****     CapSense_BUTTON7_SNS0_IDAC_COMP0,
 451:Generated_Source\PSoC6/CapSense_Structure.c **** 
 452:Generated_Source\PSoC6/CapSense_Structure.c ****     /* Button8 */
 453:Generated_Source\PSoC6/CapSense_Structure.c ****     CapSense_BUTTON8_SNS0_IDAC_COMP0,
 454:Generated_Source\PSoC6/CapSense_Structure.c **** 
 455:Generated_Source\PSoC6/CapSense_Structure.c ****     /* Button9 */
 456:Generated_Source\PSoC6/CapSense_Structure.c ****     CapSense_BUTTON9_SNS0_IDAC_COMP0,
 457:Generated_Source\PSoC6/CapSense_Structure.c **** };
 458:Generated_Source\PSoC6/CapSense_Structure.c **** 
 459:Generated_Source\PSoC6/CapSense_Structure.c **** 
 460:Generated_Source\PSoC6/CapSense_Structure.c **** 
 461:Generated_Source\PSoC6/CapSense_Structure.c **** /*******************************************************************************
 462:Generated_Source\PSoC6/CapSense_Structure.c **** * Defines internal data types and statements
 463:Generated_Source\PSoC6/CapSense_Structure.c **** *******************************************************************************/
 464:Generated_Source\PSoC6/CapSense_Structure.c **** #define PARAM_TYPE_OFFSET       (30u)
 465:Generated_Source\PSoC6/CapSense_Structure.c **** #define PARAM_TYPE_MASK         (3Lu << PARAM_TYPE_OFFSET)
 466:Generated_Source\PSoC6/CapSense_Structure.c **** #define PARAM_RWBIT_OFFSET      (29u)
 467:Generated_Source\PSoC6/CapSense_Structure.c **** #define PARAM_RWBIT_MASK        (1Lu << PARAM_RWBIT_OFFSET)
 468:Generated_Source\PSoC6/CapSense_Structure.c **** #define PARAM_FBIT_OFFSET       (28u)
 469:Generated_Source\PSoC6/CapSense_Structure.c **** #define PARAM_FBIT_MASK         (1Lu << PARAM_FBIT_OFFSET)
 470:Generated_Source\PSoC6/CapSense_Structure.c **** #define PARAM_UBIT_OFFSET       (23u)
 471:Generated_Source\PSoC6/CapSense_Structure.c **** #define PARAM_UBIT_MASK         (1Lu << PARAM_UBIT_OFFSET)
 472:Generated_Source\PSoC6/CapSense_Structure.c **** #define PARAM_WDID_OFFSET       (16u)
 473:Generated_Source\PSoC6/CapSense_Structure.c **** #define PARAM_WDID_MASK         (0x7FLu << PARAM_WDID_OFFSET)
 474:Generated_Source\PSoC6/CapSense_Structure.c **** #define PARAM_CRC_OFFSET        (24u)
 475:Generated_Source\PSoC6/CapSense_Structure.c **** #define PARAM_CRC_MASK          (0x0FLu << PARAM_CRC_OFFSET)
 476:Generated_Source\PSoC6/CapSense_Structure.c **** 
 477:Generated_Source\PSoC6/CapSense_Structure.c **** /* Defines align masks for uint16 and uint32 */
 478:Generated_Source\PSoC6/CapSense_Structure.c **** #define UINT16_ALIGN_MASK       (1Lu)
 479:Generated_Source\PSoC6/CapSense_Structure.c **** #define UINT32_ALIGN_MASK       (3Lu)
 480:Generated_Source\PSoC6/CapSense_Structure.c **** 
 481:Generated_Source\PSoC6/CapSense_Structure.c **** /* Defines supported parameter types */
 482:Generated_Source\PSoC6/CapSense_Structure.c **** #define DS_PARAM_TYPE_UINT8     (0x01u)
 483:Generated_Source\PSoC6/CapSense_Structure.c **** #define DS_PARAM_TYPE_UINT16    (0x02u)
 484:Generated_Source\PSoC6/CapSense_Structure.c **** #define DS_PARAM_TYPE_UINT32    (0x03u)
 485:Generated_Source\PSoC6/CapSense_Structure.c **** 
 486:Generated_Source\PSoC6/CapSense_Structure.c **** 
ARM GAS  C:\Users\User\AppData\Local\Temp\cczL1flU.s 			page 10


 487:Generated_Source\PSoC6/CapSense_Structure.c **** /* Defines PARAM_ID structure */
 488:Generated_Source\PSoC6/CapSense_Structure.c **** typedef struct
 489:Generated_Source\PSoC6/CapSense_Structure.c **** {
 490:Generated_Source\PSoC6/CapSense_Structure.c ****     uint16 offset;      /* parameter offset */
 491:Generated_Source\PSoC6/CapSense_Structure.c ****     uint8  widgetId;    /* widget Id parameter belongs to */
 492:Generated_Source\PSoC6/CapSense_Structure.c ****     uint8  affectsCrc;  /* parameter affects widget CRC */
 493:Generated_Source\PSoC6/CapSense_Structure.c ****     uint8  crc;         /* parameter CRC */
 494:Generated_Source\PSoC6/CapSense_Structure.c ****     uint8  flash;       /* parameter located in FLASH flag */
 495:Generated_Source\PSoC6/CapSense_Structure.c ****     uint8  rw;          /* parameter is read/write flag */
 496:Generated_Source\PSoC6/CapSense_Structure.c ****     uint8  type;        /* parameter type: uint8/uint16/uint32 */
 497:Generated_Source\PSoC6/CapSense_Structure.c **** } PARAM_ID_STRUCT;
 498:Generated_Source\PSoC6/CapSense_Structure.c **** 
 499:Generated_Source\PSoC6/CapSense_Structure.c **** 
 500:Generated_Source\PSoC6/CapSense_Structure.c **** /*******************************************************************************
 501:Generated_Source\PSoC6/CapSense_Structure.c **** * Static Function Prototypes
 502:Generated_Source\PSoC6/CapSense_Structure.c **** *******************************************************************************/
 503:Generated_Source\PSoC6/CapSense_Structure.c **** /**
 504:Generated_Source\PSoC6/CapSense_Structure.c **** * \cond SECTION_CYSENSE_INTERNAL
 505:Generated_Source\PSoC6/CapSense_Structure.c **** * \addtogroup group_cysense_internal
 506:Generated_Source\PSoC6/CapSense_Structure.c **** * \{
 507:Generated_Source\PSoC6/CapSense_Structure.c **** */
 508:Generated_Source\PSoC6/CapSense_Structure.c **** 
 509:Generated_Source\PSoC6/CapSense_Structure.c **** 
 510:Generated_Source\PSoC6/CapSense_Structure.c **** 
 511:Generated_Source\PSoC6/CapSense_Structure.c **** static cy_status DsParseParamId(uint32 paramId, PARAM_ID_STRUCT *pData);
 512:Generated_Source\PSoC6/CapSense_Structure.c **** 
 513:Generated_Source\PSoC6/CapSense_Structure.c **** /** \}
 514:Generated_Source\PSoC6/CapSense_Structure.c **** * \endcond */
 515:Generated_Source\PSoC6/CapSense_Structure.c **** 
 516:Generated_Source\PSoC6/CapSense_Structure.c **** 
 517:Generated_Source\PSoC6/CapSense_Structure.c **** /*******************************************************************************
 518:Generated_Source\PSoC6/CapSense_Structure.c **** * Function Name: CapSense_DsInitialize
 519:Generated_Source\PSoC6/CapSense_Structure.c **** ****************************************************************************//**
 520:Generated_Source\PSoC6/CapSense_Structure.c **** *
 521:Generated_Source\PSoC6/CapSense_Structure.c **** * \brief
 522:Generated_Source\PSoC6/CapSense_Structure.c **** *   This function initializes the Data Structure storage.
 523:Generated_Source\PSoC6/CapSense_Structure.c **** *
 524:Generated_Source\PSoC6/CapSense_Structure.c **** * \details
 525:Generated_Source\PSoC6/CapSense_Structure.c **** *   This function copies the default widget configuration parameters
 526:Generated_Source\PSoC6/CapSense_Structure.c **** *   from the Flash storage into the RAM Data Structure.
 527:Generated_Source\PSoC6/CapSense_Structure.c **** *
 528:Generated_Source\PSoC6/CapSense_Structure.c **** *******************************************************************************/
 529:Generated_Source\PSoC6/CapSense_Structure.c **** void CapSense_DsInitialize(void)
 530:Generated_Source\PSoC6/CapSense_Structure.c **** {
 531:Generated_Source\PSoC6/CapSense_Structure.c ****     #if ((CapSense_ENABLE == CapSense_CSX_EN) || \
 532:Generated_Source\PSoC6/CapSense_Structure.c ****          (CapSense_ENABLE == CapSense_CSD_IDAC_COMP_EN) || \
 533:Generated_Source\PSoC6/CapSense_Structure.c ****         ((CapSense_ENABLE == CapSense_CSX_EN) && \
 534:Generated_Source\PSoC6/CapSense_Structure.c ****          (CapSense_ENABLE == CapSense_CSX_SKIP_OVSMPL_SPECIFIC_NODES)))
 535:Generated_Source\PSoC6/CapSense_Structure.c ****         uint32 snsId;
 536:Generated_Source\PSoC6/CapSense_Structure.c ****         uint32 wdgtId;
 537:Generated_Source\PSoC6/CapSense_Structure.c ****         CapSense_RAM_SNS_STRUCT * ptrSnsTmp;
 538:Generated_Source\PSoC6/CapSense_Structure.c ****         CapSense_FLASH_WD_STRUCT const * ptrFlashWdgt;
 539:Generated_Source\PSoC6/CapSense_Structure.c ****     #endif
 540:Generated_Source\PSoC6/CapSense_Structure.c **** 
 541:Generated_Source\PSoC6/CapSense_Structure.c ****     #if ((CapSense_ENABLE == CapSense_CSX_EN) && \
 542:Generated_Source\PSoC6/CapSense_Structure.c ****          (CapSense_ENABLE == CapSense_CSX_SKIP_OVSMPL_SPECIFIC_NODES))
 543:Generated_Source\PSoC6/CapSense_Structure.c ****         uint16 subConvNumber;
ARM GAS  C:\Users\User\AppData\Local\Temp\cczL1flU.s 			page 11


 544:Generated_Source\PSoC6/CapSense_Structure.c ****     #endif
 545:Generated_Source\PSoC6/CapSense_Structure.c **** 
 546:Generated_Source\PSoC6/CapSense_Structure.c ****     #if (0u != CapSense_CSX_EN) || (0 != CapSense_CSD_IDAC_COMP_EN)
 547:Generated_Source\PSoC6/CapSense_Structure.c ****         uint8 const * ptrIdacInit = CapSense_ramIdacInit;
 548:Generated_Source\PSoC6/CapSense_Structure.c ****     #endif
 549:Generated_Source\PSoC6/CapSense_Structure.c **** 
 550:Generated_Source\PSoC6/CapSense_Structure.c ****     /* Reset RAM data structure content */
 551:Generated_Source\PSoC6/CapSense_Structure.c ****     (void)memset(&CapSense_dsRam, 0, sizeof(CapSense_dsRam));
 552:Generated_Source\PSoC6/CapSense_Structure.c **** 
 553:Generated_Source\PSoC6/CapSense_Structure.c ****     /* Initialize configId, deviceId and hwClock registers */
 554:Generated_Source\PSoC6/CapSense_Structure.c ****     CapSense_dsRam.configId = CapSense_CONFIG_ID;
 555:Generated_Source\PSoC6/CapSense_Structure.c ****     CapSense_dsRam.deviceId = CapSense_DEVICE_ID;
 556:Generated_Source\PSoC6/CapSense_Structure.c ****     CapSense_dsRam.hwClock = CapSense_HW_CLOCK;
 557:Generated_Source\PSoC6/CapSense_Structure.c **** 
 558:Generated_Source\PSoC6/CapSense_Structure.c ****     /* Initialize global RAM data */
 559:Generated_Source\PSoC6/CapSense_Structure.c ****     CapSense_dsRam.csd0Config = CapSense_CSD0_CONFIG;
 560:Generated_Source\PSoC6/CapSense_Structure.c **** 
 561:Generated_Source\PSoC6/CapSense_Structure.c ****     #if (0u != CapSense_TOTAL_CSD_WIDGETS)
 562:Generated_Source\PSoC6/CapSense_Structure.c ****         CapSense_dsRam.modCsdClk = CapSense_CSD_SCANSPEED_DIVIDER;
 563:Generated_Source\PSoC6/CapSense_Structure.c **** 
 564:Generated_Source\PSoC6/CapSense_Structure.c ****         #if (0u != CapSense_CSD_COMMON_SNS_CLK_EN)
 565:Generated_Source\PSoC6/CapSense_Structure.c ****             CapSense_dsRam.snsCsdClk = CapSense_CSD_SNS_CLK_DIVIDER;
 566:Generated_Source\PSoC6/CapSense_Structure.c ****         #endif /* #if (0u != CapSense_CSD_COMMON_SNS_CLK_EN) */
 567:Generated_Source\PSoC6/CapSense_Structure.c ****     #endif /* #if (0u != CapSense_TOTAL_CSD_WIDGETS) */
 568:Generated_Source\PSoC6/CapSense_Structure.c **** 
 569:Generated_Source\PSoC6/CapSense_Structure.c ****     #if (0u != CapSense_CSX_EN)
 570:Generated_Source\PSoC6/CapSense_Structure.c ****         CapSense_dsRam.modCsxClk = CapSense_CSX_SCANSPEED_DIVIDER;
 571:Generated_Source\PSoC6/CapSense_Structure.c **** 
 572:Generated_Source\PSoC6/CapSense_Structure.c ****         #if (0u != CapSense_CSX_COMMON_TX_CLK_EN)
 573:Generated_Source\PSoC6/CapSense_Structure.c ****             CapSense_dsRam.snsCsxClk = CapSense_CSX_TX_CLK_DIVIDER;
 574:Generated_Source\PSoC6/CapSense_Structure.c ****         #endif /* #if (0u != CapSense_CSX_COMMON_TX_CLK_EN) */
 575:Generated_Source\PSoC6/CapSense_Structure.c ****     #endif /* #if (0u != CapSense_CSX_EN) */
 576:Generated_Source\PSoC6/CapSense_Structure.c **** 
 577:Generated_Source\PSoC6/CapSense_Structure.c ****     #if (0u != CapSense_SELF_TEST_EN)
 578:Generated_Source\PSoC6/CapSense_Structure.c ****         CapSense_dsRam.glbCrc = CapSense_GLB_CRC;
 579:Generated_Source\PSoC6/CapSense_Structure.c ****     #endif /* #if (0u != CapSense_SELF_TEST_EN) */
 580:Generated_Source\PSoC6/CapSense_Structure.c **** 
 581:Generated_Source\PSoC6/CapSense_Structure.c ****     /* Initialize RAM widget data */
 582:Generated_Source\PSoC6/CapSense_Structure.c ****     CapSense_dsRam.wdgtList = CapSense_ramWidgetInit;
 583:Generated_Source\PSoC6/CapSense_Structure.c **** 
 584:Generated_Source\PSoC6/CapSense_Structure.c ****     /* Initialize Gesture configuration structure */
 585:Generated_Source\PSoC6/CapSense_Structure.c ****     #if ((0u != CapSense_GES_GLOBAL_EN) || (0u != CapSense_BALLISTIC_MULTIPLIER_EN))
 586:Generated_Source\PSoC6/CapSense_Structure.c ****         CapSense_dsRam.timestampInterval = CapSense_TIMESTAMP_INTERVAL;
 587:Generated_Source\PSoC6/CapSense_Structure.c ****     #endif /* ((0u != CapSense_GES_GLOBAL_EN) || (0u != CapSense_BALLISTIC_MULTIPLIER_EN)) */
 588:Generated_Source\PSoC6/CapSense_Structure.c **** 
 589:Generated_Source\PSoC6/CapSense_Structure.c ****     #if (0u != CapSense_GES_GLOBAL_EN)
 590:Generated_Source\PSoC6/CapSense_Structure.c ****         CapSense_dsRam.gestures = CapSense_ramGesturesInit;
 591:Generated_Source\PSoC6/CapSense_Structure.c ****     #endif /* (0u != CapSense_GES_GLOBAL_EN) */
 592:Generated_Source\PSoC6/CapSense_Structure.c **** 
 593:Generated_Source\PSoC6/CapSense_Structure.c ****     #if (0u != CapSense_BALLISTIC_MULTIPLIER_EN)
 594:Generated_Source\PSoC6/CapSense_Structure.c ****         CapSense_dsRam.ballisticConfig = CapSense_ramBallisticInit;
 595:Generated_Source\PSoC6/CapSense_Structure.c ****     #endif /* (0u != CapSense_BALLISTIC_MULTIPLIER_EN) */
 596:Generated_Source\PSoC6/CapSense_Structure.c **** 
 597:Generated_Source\PSoC6/CapSense_Structure.c ****     #if (0u != CapSense_CSX_EN) || (0 != CapSense_CSD_IDAC_COMP_EN)
 598:Generated_Source\PSoC6/CapSense_Structure.c ****         /* Initialize IDAC data */
 599:Generated_Source\PSoC6/CapSense_Structure.c ****         ptrFlashWdgt = CapSense_dsFlash.wdgtArray;
 600:Generated_Source\PSoC6/CapSense_Structure.c **** 
ARM GAS  C:\Users\User\AppData\Local\Temp\cczL1flU.s 			page 12


 601:Generated_Source\PSoC6/CapSense_Structure.c ****         for (wdgtId = CapSense_TOTAL_WIDGETS; wdgtId-- > 0u; )
 602:Generated_Source\PSoC6/CapSense_Structure.c ****         {
 603:Generated_Source\PSoC6/CapSense_Structure.c ****             ptrSnsTmp = ptrFlashWdgt->ptr2SnsRam;
 604:Generated_Source\PSoC6/CapSense_Structure.c **** 
 605:Generated_Source\PSoC6/CapSense_Structure.c ****             for (snsId = CapSense_GET_SNS_CNT_BY_PTR(ptrFlashWdgt); snsId-- > 0u;)
 606:Generated_Source\PSoC6/CapSense_Structure.c ****             {
 607:Generated_Source\PSoC6/CapSense_Structure.c ****                 ptrSnsTmp->idacComp[0u] = *ptrIdacInit;
 608:Generated_Source\PSoC6/CapSense_Structure.c ****                 ptrIdacInit++;
 609:Generated_Source\PSoC6/CapSense_Structure.c **** 
 610:Generated_Source\PSoC6/CapSense_Structure.c ****                 #if (0u != CapSense_MULTI_FREQ_SCAN_EN)
 611:Generated_Source\PSoC6/CapSense_Structure.c ****                     ptrSnsTmp->idacComp[1u] = *ptrIdacInit;
 612:Generated_Source\PSoC6/CapSense_Structure.c ****                     ptrIdacInit++;
 613:Generated_Source\PSoC6/CapSense_Structure.c **** 
 614:Generated_Source\PSoC6/CapSense_Structure.c ****                     ptrSnsTmp->idacComp[2u] = *ptrIdacInit;
 615:Generated_Source\PSoC6/CapSense_Structure.c ****                     ptrIdacInit++;
 616:Generated_Source\PSoC6/CapSense_Structure.c ****                 #endif /* #if (0u != CapSense_MULTI_FREQ_SCAN_EN) */
 617:Generated_Source\PSoC6/CapSense_Structure.c **** 
 618:Generated_Source\PSoC6/CapSense_Structure.c ****                 ptrSnsTmp++;
 619:Generated_Source\PSoC6/CapSense_Structure.c ****             }
 620:Generated_Source\PSoC6/CapSense_Structure.c **** 
 621:Generated_Source\PSoC6/CapSense_Structure.c ****             ptrFlashWdgt++; /* Move to next widget */
 622:Generated_Source\PSoC6/CapSense_Structure.c ****         }
 623:Generated_Source\PSoC6/CapSense_Structure.c ****     #endif /*(0u != CapSense_CSX_EN) || (0 != CapSense_CSD_IDAC_COMP_EN)*/
 624:Generated_Source\PSoC6/CapSense_Structure.c **** 
 625:Generated_Source\PSoC6/CapSense_Structure.c ****     #if ((CapSense_ENABLE == CapSense_CSX_EN) && \
 626:Generated_Source\PSoC6/CapSense_Structure.c ****          (CapSense_ENABLE == CapSense_CSX_SKIP_OVSMPL_SPECIFIC_NODES))
 627:Generated_Source\PSoC6/CapSense_Structure.c ****         /* Initialize Sub-Conversion Number for each node of each CSX widget */
 628:Generated_Source\PSoC6/CapSense_Structure.c ****         ptrFlashWdgt = CapSense_dsFlash.wdgtArray;
 629:Generated_Source\PSoC6/CapSense_Structure.c ****         for (wdgtId = CapSense_TOTAL_WIDGETS; wdgtId-- > 0u;)
 630:Generated_Source\PSoC6/CapSense_Structure.c ****         {
 631:Generated_Source\PSoC6/CapSense_Structure.c ****             /* Check for widget sense method */
 632:Generated_Source\PSoC6/CapSense_Structure.c ****             if (CapSense_SENSE_METHOD_CSX_E == CapSense_GET_SENSE_METHOD(ptrFlashWdgt))
 633:Generated_Source\PSoC6/CapSense_Structure.c ****             {
 634:Generated_Source\PSoC6/CapSense_Structure.c ****                 /* Take the sub-convesion number of a CSX widget and initialize each node of this w
 635:Generated_Source\PSoC6/CapSense_Structure.c ****                 subConvNumber = ((CapSense_RAM_WD_BASE_STRUCT *)(ptrFlashWdgt->ptr2WdgtRam))->resol
 636:Generated_Source\PSoC6/CapSense_Structure.c ****                 ptrSnsTmp = ptrFlashWdgt->ptr2SnsRam;
 637:Generated_Source\PSoC6/CapSense_Structure.c ****                 for (snsId = CapSense_GET_SNS_CNT_BY_PTR(ptrFlashWdgt); snsId-- > 0u;)
 638:Generated_Source\PSoC6/CapSense_Structure.c ****                 {
 639:Generated_Source\PSoC6/CapSense_Structure.c ****                     ptrSnsTmp->subConvNum = subConvNumber;
 640:Generated_Source\PSoC6/CapSense_Structure.c ****                     ptrSnsTmp++;
 641:Generated_Source\PSoC6/CapSense_Structure.c ****                 }
 642:Generated_Source\PSoC6/CapSense_Structure.c ****             }
 643:Generated_Source\PSoC6/CapSense_Structure.c ****             /* Move to the next widget */
 644:Generated_Source\PSoC6/CapSense_Structure.c ****             ptrFlashWdgt++;
 645:Generated_Source\PSoC6/CapSense_Structure.c ****         }
 646:Generated_Source\PSoC6/CapSense_Structure.c ****     #endif /* ((CapSense_ENABLE == CapSense_CSX_EN) && \
 647:Generated_Source\PSoC6/CapSense_Structure.c ****                (CapSense_ENABLE == CapSense_CSX_SKIP_OVSMPL_SPECIFIC_NODES)) */
 648:Generated_Source\PSoC6/CapSense_Structure.c **** 
 649:Generated_Source\PSoC6/CapSense_Structure.c ****     #if (0u != CapSense_ADC_EN)
 650:Generated_Source\PSoC6/CapSense_Structure.c ****         CapSense_AdcDsInitialize();
 651:Generated_Source\PSoC6/CapSense_Structure.c ****     #endif /* (0u != CapSense_ADC_EN) */
 652:Generated_Source\PSoC6/CapSense_Structure.c **** }
 653:Generated_Source\PSoC6/CapSense_Structure.c **** 
 654:Generated_Source\PSoC6/CapSense_Structure.c **** 
 655:Generated_Source\PSoC6/CapSense_Structure.c **** #if (0u != CapSense_ADC_EN)
 656:Generated_Source\PSoC6/CapSense_Structure.c ****     /*******************************************************************************
 657:Generated_Source\PSoC6/CapSense_Structure.c ****     * Function Name: CapSense_AdcDsInitialize
ARM GAS  C:\Users\User\AppData\Local\Temp\cczL1flU.s 			page 13


 658:Generated_Source\PSoC6/CapSense_Structure.c ****     ****************************************************************************//**
 659:Generated_Source\PSoC6/CapSense_Structure.c ****     *
 660:Generated_Source\PSoC6/CapSense_Structure.c ****     * \brief
 661:Generated_Source\PSoC6/CapSense_Structure.c ****     *   Configures the initial Adc datastructure members.
 662:Generated_Source\PSoC6/CapSense_Structure.c ****     *
 663:Generated_Source\PSoC6/CapSense_Structure.c ****     *******************************************************************************/
 664:Generated_Source\PSoC6/CapSense_Structure.c ****     void CapSense_AdcDsInitialize(void)
 665:Generated_Source\PSoC6/CapSense_Structure.c ****     {
 666:Generated_Source\PSoC6/CapSense_Structure.c ****         CapSense_dsRam.adcResolution = CapSense_ADC_RESOLUTION;
 667:Generated_Source\PSoC6/CapSense_Structure.c ****         CapSense_dsRam.adcIdac = (uint8)(CapSense_ADC_IDAC_DEFAULT);
 668:Generated_Source\PSoC6/CapSense_Structure.c ****         CapSense_dsRam.adcActiveCh = CapSense_AdcNO_CHANNEL;
 669:Generated_Source\PSoC6/CapSense_Structure.c ****     }
 670:Generated_Source\PSoC6/CapSense_Structure.c **** #endif /* (0u != CapSense_ADC_EN) */
 671:Generated_Source\PSoC6/CapSense_Structure.c **** 
 672:Generated_Source\PSoC6/CapSense_Structure.c **** 
 673:Generated_Source\PSoC6/CapSense_Structure.c **** /*******************************************************************************
 674:Generated_Source\PSoC6/CapSense_Structure.c **** * Function Name: DsParseParamId
 675:Generated_Source\PSoC6/CapSense_Structure.c **** ****************************************************************************//**
 676:Generated_Source\PSoC6/CapSense_Structure.c **** *
 677:Generated_Source\PSoC6/CapSense_Structure.c **** * \brief
 678:Generated_Source\PSoC6/CapSense_Structure.c **** *   This function parses the parameter ID and checks its correctness.
 679:Generated_Source\PSoC6/CapSense_Structure.c **** *
 680:Generated_Source\PSoC6/CapSense_Structure.c **** * \details
 681:Generated_Source\PSoC6/CapSense_Structure.c **** *   This function checks the parameter CRC if the self-test is enabled,
 682:Generated_Source\PSoC6/CapSense_Structure.c **** *   validates the offset value and parameter type.
 683:Generated_Source\PSoC6/CapSense_Structure.c **** *
 684:Generated_Source\PSoC6/CapSense_Structure.c **** * \param paramId The parameter to parse.
 685:Generated_Source\PSoC6/CapSense_Structure.c **** * \param pData   The pointer to the structure that will hold parsed data.
 686:Generated_Source\PSoC6/CapSense_Structure.c **** *
 687:Generated_Source\PSoC6/CapSense_Structure.c **** * \return CY_RET_SUCCESS     If the parameter is valid
 688:Generated_Source\PSoC6/CapSense_Structure.c **** *         CY_RET_BAD_PARAM   If  the parameter is invalid
 689:Generated_Source\PSoC6/CapSense_Structure.c **** *
 690:Generated_Source\PSoC6/CapSense_Structure.c **** *******************************************************************************/
 691:Generated_Source\PSoC6/CapSense_Structure.c **** static cy_status DsParseParamId(uint32 paramId, PARAM_ID_STRUCT *pData)
 692:Generated_Source\PSoC6/CapSense_Structure.c **** {
  28              		.loc 1 692 0
  29              		.cfi_startproc
  30              		@ args = 0, pretend = 0, frame = 0
  31              		@ frame_needed = 0, uses_anonymous_args = 0
  32              		@ link register save eliminated.
  33              	.LVL0:
  34 0000 30B4     		push	{r4, r5}
  35              		.cfi_def_cfa_offset 8
  36              		.cfi_offset 4, -8
  37              		.cfi_offset 5, -4
  38              	.LVL1:
 693:Generated_Source\PSoC6/CapSense_Structure.c ****     cy_status result = CY_RET_SUCCESS;
 694:Generated_Source\PSoC6/CapSense_Structure.c **** 
 695:Generated_Source\PSoC6/CapSense_Structure.c ****     #if (0u != CapSense_SELF_TEST_EN)
 696:Generated_Source\PSoC6/CapSense_Structure.c ****         const uint8 crcTable[] =
 697:Generated_Source\PSoC6/CapSense_Structure.c ****         {
 698:Generated_Source\PSoC6/CapSense_Structure.c ****             0x00u, 0x09u, 0x0Bu, 0x02u, 0x0Fu, 0x06u, 0x04u, 0x0Du,
 699:Generated_Source\PSoC6/CapSense_Structure.c ****             0x07u, 0x0Eu, 0x0Cu, 0x05u, 0x08u, 0x01u, 0x03u, 0x0Au
 700:Generated_Source\PSoC6/CapSense_Structure.c ****         };
 701:Generated_Source\PSoC6/CapSense_Structure.c **** 
 702:Generated_Source\PSoC6/CapSense_Structure.c ****         uint32 i;
 703:Generated_Source\PSoC6/CapSense_Structure.c ****         uint32 actualCrc = 0u;
ARM GAS  C:\Users\User\AppData\Local\Temp\cczL1flU.s 			page 14


 704:Generated_Source\PSoC6/CapSense_Structure.c ****         uint32 crcIndex;
 705:Generated_Source\PSoC6/CapSense_Structure.c ****     #endif /* #if (0u != CapSense_SELF_TEST_EN) */
 706:Generated_Source\PSoC6/CapSense_Structure.c **** 
 707:Generated_Source\PSoC6/CapSense_Structure.c ****     /* Extract parameter data */
 708:Generated_Source\PSoC6/CapSense_Structure.c ****     pData->offset     = CY_LO16(paramId);
  39              		.loc 1 708 0
  40 0002 82B2     		uxth	r2, r0
  41 0004 0A80     		strh	r2, [r1]	@ movhi
 709:Generated_Source\PSoC6/CapSense_Structure.c ****     pData->affectsCrc = CY_LO8((paramId & PARAM_UBIT_MASK)  >> PARAM_UBIT_OFFSET);
  42              		.loc 1 709 0
  43 0006 C0F3C053 		ubfx	r3, r0, #23, #1
  44 000a CB70     		strb	r3, [r1, #3]
 710:Generated_Source\PSoC6/CapSense_Structure.c ****     pData->widgetId   = CY_LO8((paramId & PARAM_WDID_MASK)  >> PARAM_WDID_OFFSET);
  45              		.loc 1 710 0
  46 000c C0F30643 		ubfx	r3, r0, #16, #7
  47 0010 8B70     		strb	r3, [r1, #2]
 711:Generated_Source\PSoC6/CapSense_Structure.c ****     pData->type       = CY_LO8((paramId & PARAM_TYPE_MASK)  >> PARAM_TYPE_OFFSET);
  48              		.loc 1 711 0
  49 0012 830F     		lsrs	r3, r0, #30
  50 0014 CB71     		strb	r3, [r1, #7]
 712:Generated_Source\PSoC6/CapSense_Structure.c ****     pData->flash      = CY_LO8((paramId & PARAM_FBIT_MASK)  >> PARAM_FBIT_OFFSET);
  51              		.loc 1 712 0
  52 0016 C0F30074 		ubfx	r4, r0, #28, #1
  53 001a 4C71     		strb	r4, [r1, #5]
 713:Generated_Source\PSoC6/CapSense_Structure.c ****     pData->rw         = CY_LO8((paramId & PARAM_RWBIT_MASK) >> PARAM_RWBIT_OFFSET);
  54              		.loc 1 713 0
  55 001c C0F34075 		ubfx	r5, r0, #29, #1
  56 0020 8D71     		strb	r5, [r1, #6]
 714:Generated_Source\PSoC6/CapSense_Structure.c ****     pData->crc        = CY_LO8((paramId & PARAM_CRC_MASK)   >> PARAM_CRC_OFFSET);
  57              		.loc 1 714 0
  58 0022 C0F30360 		ubfx	r0, r0, #24, #4
  59              	.LVL2:
  60 0026 0871     		strb	r0, [r1, #4]
 715:Generated_Source\PSoC6/CapSense_Structure.c **** 
 716:Generated_Source\PSoC6/CapSense_Structure.c ****     /* Check parameter CRC if self-test is enabled */
 717:Generated_Source\PSoC6/CapSense_Structure.c ****     #if (0u != CapSense_SELF_TEST_EN)
 718:Generated_Source\PSoC6/CapSense_Structure.c **** 
 719:Generated_Source\PSoC6/CapSense_Structure.c ****         /* Calculate CRC for bits 0..24.
 720:Generated_Source\PSoC6/CapSense_Structure.c ****          * The CRC is calculated using nibbles (4-bits).
 721:Generated_Source\PSoC6/CapSense_Structure.c ****          * So for 0..24 bits there are in total 6 nibbles. */
 722:Generated_Source\PSoC6/CapSense_Structure.c ****         for (i = 6u; i > 0u; i--)
 723:Generated_Source\PSoC6/CapSense_Structure.c ****         {
 724:Generated_Source\PSoC6/CapSense_Structure.c ****             crcIndex = actualCrc ^ (paramId & 0x0Fu);
 725:Generated_Source\PSoC6/CapSense_Structure.c ****             actualCrc = crcTable[crcIndex];
 726:Generated_Source\PSoC6/CapSense_Structure.c ****             paramId >>= 4u;
 727:Generated_Source\PSoC6/CapSense_Structure.c ****         }
 728:Generated_Source\PSoC6/CapSense_Structure.c **** 
 729:Generated_Source\PSoC6/CapSense_Structure.c ****         /* Add bits 28..32 */
 730:Generated_Source\PSoC6/CapSense_Structure.c ****         crcIndex = actualCrc ^ ((paramId >> 4u) & 0x0Fu);
 731:Generated_Source\PSoC6/CapSense_Structure.c ****         actualCrc = crcTable[crcIndex];
 732:Generated_Source\PSoC6/CapSense_Structure.c **** 
 733:Generated_Source\PSoC6/CapSense_Structure.c ****         /* Add bits 24..28 (CRC) */
 734:Generated_Source\PSoC6/CapSense_Structure.c ****         crcIndex = actualCrc ^ (paramId & 0x0Fu);
 735:Generated_Source\PSoC6/CapSense_Structure.c ****         actualCrc = crcTable[crcIndex];
 736:Generated_Source\PSoC6/CapSense_Structure.c **** 
 737:Generated_Source\PSoC6/CapSense_Structure.c ****         if (0u != actualCrc)
 738:Generated_Source\PSoC6/CapSense_Structure.c ****         {
ARM GAS  C:\Users\User\AppData\Local\Temp\cczL1flU.s 			page 15


 739:Generated_Source\PSoC6/CapSense_Structure.c ****             /* CRC mismatch */
 740:Generated_Source\PSoC6/CapSense_Structure.c ****             result = CY_RET_BAD_PARAM;
 741:Generated_Source\PSoC6/CapSense_Structure.c ****         }
 742:Generated_Source\PSoC6/CapSense_Structure.c **** 
 743:Generated_Source\PSoC6/CapSense_Structure.c ****         if ((CY_RET_SUCCESS == result) &&
 744:Generated_Source\PSoC6/CapSense_Structure.c ****             (0u != pData->affectsCrc) && (pData->widgetId >= CapSense_TOTAL_WIDGETS ))
 745:Generated_Source\PSoC6/CapSense_Structure.c ****         {
 746:Generated_Source\PSoC6/CapSense_Structure.c ****             /* Wrong widgetId for protected parameter */
 747:Generated_Source\PSoC6/CapSense_Structure.c ****             result = CY_RET_BAD_PARAM;
 748:Generated_Source\PSoC6/CapSense_Structure.c ****         }
 749:Generated_Source\PSoC6/CapSense_Structure.c **** 
 750:Generated_Source\PSoC6/CapSense_Structure.c ****         /* Check offset value range */
 751:Generated_Source\PSoC6/CapSense_Structure.c ****         if (CY_RET_SUCCESS == result)
 752:Generated_Source\PSoC6/CapSense_Structure.c ****         {
 753:Generated_Source\PSoC6/CapSense_Structure.c ****             if (0u == pData->flash)
 754:Generated_Source\PSoC6/CapSense_Structure.c ****             {
 755:Generated_Source\PSoC6/CapSense_Structure.c ****                 /* Check offset for RAM Data Structure range */
 756:Generated_Source\PSoC6/CapSense_Structure.c ****                 if (pData->offset >= sizeof(CapSense_dsRam))
 757:Generated_Source\PSoC6/CapSense_Structure.c ****                 {
 758:Generated_Source\PSoC6/CapSense_Structure.c ****                     result = CY_RET_BAD_PARAM;
 759:Generated_Source\PSoC6/CapSense_Structure.c ****                 }
 760:Generated_Source\PSoC6/CapSense_Structure.c ****             }
 761:Generated_Source\PSoC6/CapSense_Structure.c ****             else
 762:Generated_Source\PSoC6/CapSense_Structure.c ****             {
 763:Generated_Source\PSoC6/CapSense_Structure.c ****                 /* Check offset for Flash Data Structure range */
 764:Generated_Source\PSoC6/CapSense_Structure.c ****                 if (pData->offset >= sizeof(CapSense_dsFlash))
 765:Generated_Source\PSoC6/CapSense_Structure.c ****                 {
 766:Generated_Source\PSoC6/CapSense_Structure.c ****                     result = CY_RET_BAD_PARAM;
 767:Generated_Source\PSoC6/CapSense_Structure.c ****                 }
 768:Generated_Source\PSoC6/CapSense_Structure.c **** 
 769:Generated_Source\PSoC6/CapSense_Structure.c ****                 /* Check if it is marked as Read Only */
 770:Generated_Source\PSoC6/CapSense_Structure.c ****                 if (0u != pData->rw)
 771:Generated_Source\PSoC6/CapSense_Structure.c ****                 {
 772:Generated_Source\PSoC6/CapSense_Structure.c ****                     result = CY_RET_BAD_PARAM;
 773:Generated_Source\PSoC6/CapSense_Structure.c ****                 }
 774:Generated_Source\PSoC6/CapSense_Structure.c ****             }
 775:Generated_Source\PSoC6/CapSense_Structure.c ****         }
 776:Generated_Source\PSoC6/CapSense_Structure.c ****     #else /* #if (0u != CapSense_SELF_TEST_EN) */
 777:Generated_Source\PSoC6/CapSense_Structure.c ****         /* Check offset value range */
 778:Generated_Source\PSoC6/CapSense_Structure.c ****         if (0u == pData->flash)
  61              		.loc 1 778 0
  62 0028 24B9     		cbnz	r4, .L2
 779:Generated_Source\PSoC6/CapSense_Structure.c ****         {
 780:Generated_Source\PSoC6/CapSense_Structure.c ****             /* Check offset for RAM Data Structure range */
 781:Generated_Source\PSoC6/CapSense_Structure.c ****             if (pData->offset >= sizeof(CapSense_dsRam))
  63              		.loc 1 781 0
  64 002a B2F58E7F 		cmp	r2, #284
  65 002e 09D2     		bcs	.L9
 693:Generated_Source\PSoC6/CapSense_Structure.c **** 
  66              		.loc 1 693 0
  67 0030 0020     		movs	r0, #0
  68 0032 0AE0     		b	.L3
  69              	.L2:
 782:Generated_Source\PSoC6/CapSense_Structure.c ****             {
 783:Generated_Source\PSoC6/CapSense_Structure.c ****                 result = CY_RET_BAD_PARAM;
 784:Generated_Source\PSoC6/CapSense_Structure.c ****             }
 785:Generated_Source\PSoC6/CapSense_Structure.c ****         }
ARM GAS  C:\Users\User\AppData\Local\Temp\cczL1flU.s 			page 16


 786:Generated_Source\PSoC6/CapSense_Structure.c ****         else
 787:Generated_Source\PSoC6/CapSense_Structure.c ****         {
 788:Generated_Source\PSoC6/CapSense_Structure.c ****             /* Check offset for Flash Data Structure range */
 789:Generated_Source\PSoC6/CapSense_Structure.c ****             if (pData->offset >= sizeof(CapSense_dsFlash))
  70              		.loc 1 789 0
  71 0034 B2F58C7F 		cmp	r2, #280
  72 0038 01D2     		bcs	.L10
 693:Generated_Source\PSoC6/CapSense_Structure.c **** 
  73              		.loc 1 693 0
  74 003a 0020     		movs	r0, #0
  75 003c 00E0     		b	.L4
  76              	.L10:
 790:Generated_Source\PSoC6/CapSense_Structure.c ****             {
 791:Generated_Source\PSoC6/CapSense_Structure.c ****                 result = CY_RET_BAD_PARAM;
  77              		.loc 1 791 0
  78 003e 0120     		movs	r0, #1
  79              	.L4:
  80              	.LVL3:
 792:Generated_Source\PSoC6/CapSense_Structure.c ****             }
 793:Generated_Source\PSoC6/CapSense_Structure.c **** 
 794:Generated_Source\PSoC6/CapSense_Structure.c ****             /* Check if it is marked as Read Only */
 795:Generated_Source\PSoC6/CapSense_Structure.c ****             if (0u != pData->rw)
  81              		.loc 1 795 0
  82 0040 15B9     		cbnz	r5, .L11
  83 0042 02E0     		b	.L3
  84              	.LVL4:
  85              	.L9:
 783:Generated_Source\PSoC6/CapSense_Structure.c ****             }
  86              		.loc 1 783 0
  87 0044 0120     		movs	r0, #1
  88 0046 00E0     		b	.L3
  89              	.LVL5:
  90              	.L11:
 796:Generated_Source\PSoC6/CapSense_Structure.c ****             {
 797:Generated_Source\PSoC6/CapSense_Structure.c ****                 result = CY_RET_BAD_PARAM;
  91              		.loc 1 797 0
  92 0048 0120     		movs	r0, #1
  93              	.LVL6:
  94              	.L3:
 798:Generated_Source\PSoC6/CapSense_Structure.c ****             }
 799:Generated_Source\PSoC6/CapSense_Structure.c ****         }
 800:Generated_Source\PSoC6/CapSense_Structure.c ****     #endif /* #if (0u != CapSense_SELF_TEST_EN) */
 801:Generated_Source\PSoC6/CapSense_Structure.c **** 
 802:Generated_Source\PSoC6/CapSense_Structure.c ****     if (CY_RET_SUCCESS == result)
  95              		.loc 1 802 0
  96 004a 98B9     		cbnz	r0, .L5
 803:Generated_Source\PSoC6/CapSense_Structure.c ****     {
 804:Generated_Source\PSoC6/CapSense_Structure.c ****         /* Check parameter type, offset alignment */
 805:Generated_Source\PSoC6/CapSense_Structure.c ****         switch (pData->type)
  97              		.loc 1 805 0
  98 004c 022B     		cmp	r3, #2
  99 004e 04D0     		beq	.L6
 100 0050 032B     		cmp	r3, #3
 101 0052 06D0     		beq	.L7
 102 0054 012B     		cmp	r3, #1
 103 0056 08D1     		bne	.L15
 104 0058 0CE0     		b	.L5
ARM GAS  C:\Users\User\AppData\Local\Temp\cczL1flU.s 			page 17


 105              	.L6:
 806:Generated_Source\PSoC6/CapSense_Structure.c ****         {
 807:Generated_Source\PSoC6/CapSense_Structure.c ****         case DS_PARAM_TYPE_UINT16:
 808:Generated_Source\PSoC6/CapSense_Structure.c ****             if (0u != (pData->offset & UINT16_ALIGN_MASK))
 106              		.loc 1 808 0
 107 005a 12F0010F 		tst	r2, #1
 108 005e 06D1     		bne	.L13
 109 0060 08E0     		b	.L5
 110              	.L7:
 809:Generated_Source\PSoC6/CapSense_Structure.c ****             {
 810:Generated_Source\PSoC6/CapSense_Structure.c ****                 result = CY_RET_BAD_PARAM;
 811:Generated_Source\PSoC6/CapSense_Structure.c ****             }
 812:Generated_Source\PSoC6/CapSense_Structure.c ****             break;
 813:Generated_Source\PSoC6/CapSense_Structure.c **** 
 814:Generated_Source\PSoC6/CapSense_Structure.c ****         case DS_PARAM_TYPE_UINT32:
 815:Generated_Source\PSoC6/CapSense_Structure.c ****             if (0u != (pData->offset & UINT32_ALIGN_MASK))
 111              		.loc 1 815 0
 112 0062 12F0030F 		tst	r2, #3
 113 0066 04D1     		bne	.L14
 114 0068 04E0     		b	.L5
 115              	.L15:
 816:Generated_Source\PSoC6/CapSense_Structure.c ****             {
 817:Generated_Source\PSoC6/CapSense_Structure.c ****                 result = CY_RET_BAD_PARAM;
 818:Generated_Source\PSoC6/CapSense_Structure.c ****             }
 819:Generated_Source\PSoC6/CapSense_Structure.c ****             break;
 820:Generated_Source\PSoC6/CapSense_Structure.c **** 
 821:Generated_Source\PSoC6/CapSense_Structure.c ****         case DS_PARAM_TYPE_UINT8:
 822:Generated_Source\PSoC6/CapSense_Structure.c ****             break;
 823:Generated_Source\PSoC6/CapSense_Structure.c **** 
 824:Generated_Source\PSoC6/CapSense_Structure.c ****         default:
 825:Generated_Source\PSoC6/CapSense_Structure.c ****             result = CY_RET_BAD_PARAM;
 116              		.loc 1 825 0
 117 006a 0120     		movs	r0, #1
 118              	.LVL7:
 119 006c 02E0     		b	.L5
 120              	.LVL8:
 121              	.L13:
 810:Generated_Source\PSoC6/CapSense_Structure.c ****             }
 122              		.loc 1 810 0
 123 006e 0120     		movs	r0, #1
 124              	.LVL9:
 125 0070 00E0     		b	.L5
 126              	.LVL10:
 127              	.L14:
 817:Generated_Source\PSoC6/CapSense_Structure.c ****             }
 128              		.loc 1 817 0
 129 0072 0120     		movs	r0, #1
 130              	.LVL11:
 131              	.L5:
 826:Generated_Source\PSoC6/CapSense_Structure.c ****             break;
 827:Generated_Source\PSoC6/CapSense_Structure.c ****         }
 828:Generated_Source\PSoC6/CapSense_Structure.c ****     }
 829:Generated_Source\PSoC6/CapSense_Structure.c **** 
 830:Generated_Source\PSoC6/CapSense_Structure.c ****     return result;
 831:Generated_Source\PSoC6/CapSense_Structure.c **** }
 132              		.loc 1 831 0
 133 0074 30BC     		pop	{r4, r5}
ARM GAS  C:\Users\User\AppData\Local\Temp\cczL1flU.s 			page 18


 134              		.cfi_restore 5
 135              		.cfi_restore 4
 136              		.cfi_def_cfa_offset 0
 137 0076 7047     		bx	lr
 138              		.cfi_endproc
 139              	.LFE126:
 140              		.size	DsParseParamId, .-DsParseParamId
 141              		.section	.text.CapSense_DsInitialize,"ax",%progbits
 142              		.align	2
 143              		.global	CapSense_DsInitialize
 144              		.thumb
 145              		.thumb_func
 146              		.type	CapSense_DsInitialize, %function
 147              	CapSense_DsInitialize:
 148              	.LFB125:
 530:Generated_Source\PSoC6/CapSense_Structure.c ****     #if ((CapSense_ENABLE == CapSense_CSX_EN) || \
 149              		.loc 1 530 0
 150              		.cfi_startproc
 151              		@ args = 0, pretend = 0, frame = 0
 152              		@ frame_needed = 0, uses_anonymous_args = 0
 153 0000 38B5     		push	{r3, r4, r5, lr}
 154              		.cfi_def_cfa_offset 16
 155              		.cfi_offset 3, -16
 156              		.cfi_offset 4, -12
 157              		.cfi_offset 5, -8
 158              		.cfi_offset 14, -4
 159              	.LVL12:
 551:Generated_Source\PSoC6/CapSense_Structure.c **** 
 160              		.loc 1 551 0
 161 0002 194D     		ldr	r5, .L23
 162 0004 4FF48E72 		mov	r2, #284
 163 0008 0021     		movs	r1, #0
 164 000a 2846     		mov	r0, r5
 165 000c FFF7FEFF 		bl	memset
 166              	.LVL13:
 554:Generated_Source\PSoC6/CapSense_Structure.c ****     CapSense_dsRam.deviceId = CapSense_DEVICE_ID;
 167              		.loc 1 554 0
 168 0010 4FF22E43 		movw	r3, #62510
 169 0014 2B80     		strh	r3, [r5]	@ movhi
 555:Generated_Source\PSoC6/CapSense_Structure.c ****     CapSense_dsRam.hwClock = CapSense_HW_CLOCK;
 170              		.loc 1 555 0
 171 0016 4FF41063 		mov	r3, #2304
 172 001a 6B80     		strh	r3, [r5, #2]	@ movhi
 556:Generated_Source\PSoC6/CapSense_Structure.c **** 
 173              		.loc 1 556 0
 174 001c 40F63543 		movw	r3, #3125
 175 0020 AB80     		strh	r3, [r5, #4]	@ movhi
 559:Generated_Source\PSoC6/CapSense_Structure.c **** 
 176              		.loc 1 559 0
 177 0022 0823     		movs	r3, #8
 178 0024 6B84     		strh	r3, [r5, #34]	@ movhi
 562:Generated_Source\PSoC6/CapSense_Structure.c **** 
 179              		.loc 1 562 0
 180 0026 0223     		movs	r3, #2
 181 0028 85F82430 		strb	r3, [r5, #36]
 582:Generated_Source\PSoC6/CapSense_Structure.c **** 
 182              		.loc 1 582 0
ARM GAS  C:\Users\User\AppData\Local\Temp\cczL1flU.s 			page 19


 183 002c 0F4C     		ldr	r4, .L23+4
 184 002e 8C22     		movs	r2, #140
 185 0030 04F59271 		add	r1, r4, #292
 186 0034 05F12600 		add	r0, r5, #38
 187 0038 FFF7FEFF 		bl	memcpy
 188              	.LVL14:
 547:Generated_Source\PSoC6/CapSense_Structure.c ****     #endif
 189              		.loc 1 547 0
 190 003c 2046     		mov	r0, r4
 599:Generated_Source\PSoC6/CapSense_Structure.c **** 
 191              		.loc 1 599 0
 192 003e 0C34     		adds	r4, r4, #12
 601:Generated_Source\PSoC6/CapSense_Structure.c ****         {
 193              		.loc 1 601 0
 194 0040 0A23     		movs	r3, #10
 195 0042 0CE0     		b	.L18
 196              	.LVL15:
 197              	.L21:
 603:Generated_Source\PSoC6/CapSense_Structure.c **** 
 198              		.loc 1 603 0
 199 0044 A268     		ldr	r2, [r4, #8]
 200              	.LVL16:
 605:Generated_Source\PSoC6/CapSense_Structure.c ****             {
 201              		.loc 1 605 0
 202 0046 238B     		ldrh	r3, [r4, #24]
 203              	.LVL17:
 204 0048 04E0     		b	.L19
 205              	.LVL18:
 206              	.L20:
 607:Generated_Source\PSoC6/CapSense_Structure.c ****                 ptrIdacInit++;
 207              		.loc 1 607 0
 208 004a 10F8013B 		ldrb	r3, [r0], #1	@ zero_extendqisi2
 209              	.LVL19:
 210 004e 5372     		strb	r3, [r2, #9]
 211              	.LVL20:
 618:Generated_Source\PSoC6/CapSense_Structure.c ****             }
 212              		.loc 1 618 0
 213 0050 0A32     		adds	r2, r2, #10
 214              	.LVL21:
 605:Generated_Source\PSoC6/CapSense_Structure.c ****             {
 215              		.loc 1 605 0
 216 0052 0B46     		mov	r3, r1
 217              	.LVL22:
 218              	.L19:
 605:Generated_Source\PSoC6/CapSense_Structure.c ****             {
 219              		.loc 1 605 0 is_stmt 0 discriminator 1
 220 0054 591E     		subs	r1, r3, #1
 221              	.LVL23:
 222 0056 002B     		cmp	r3, #0
 223 0058 F7D1     		bne	.L20
 621:Generated_Source\PSoC6/CapSense_Structure.c ****         }
 224              		.loc 1 621 0 is_stmt 1
 225 005a 1C34     		adds	r4, r4, #28
 226              	.LVL24:
 601:Generated_Source\PSoC6/CapSense_Structure.c ****         {
 227              		.loc 1 601 0
 228 005c 2B46     		mov	r3, r5
ARM GAS  C:\Users\User\AppData\Local\Temp\cczL1flU.s 			page 20


 229              	.LVL25:
 230              	.L18:
 601:Generated_Source\PSoC6/CapSense_Structure.c ****         {
 231              		.loc 1 601 0 is_stmt 0 discriminator 1
 232 005e 5D1E     		subs	r5, r3, #1
 233              	.LVL26:
 234 0060 002B     		cmp	r3, #0
 235 0062 EFD1     		bne	.L21
 652:Generated_Source\PSoC6/CapSense_Structure.c **** 
 236              		.loc 1 652 0 is_stmt 1
 237 0064 38BD     		pop	{r3, r4, r5, pc}
 238              	.LVL27:
 239              	.L24:
 240 0066 00BF     		.align	2
 241              	.L23:
 242 0068 00000000 		.word	CapSense_dsRam
 243 006c 00000000 		.word	.LANCHOR0
 244              		.cfi_endproc
 245              	.LFE125:
 246              		.size	CapSense_DsInitialize, .-CapSense_DsInitialize
 247              		.section	.text.CapSense_GetParam,"ax",%progbits
 248              		.align	2
 249              		.global	CapSense_GetParam
 250              		.thumb
 251              		.thumb_func
 252              		.type	CapSense_GetParam, %function
 253              	CapSense_GetParam:
 254              	.LFB127:
 832:Generated_Source\PSoC6/CapSense_Structure.c **** 
 833:Generated_Source\PSoC6/CapSense_Structure.c **** /*******************************************************************************
 834:Generated_Source\PSoC6/CapSense_Structure.c **** * Function Name: CapSense_GetParam
 835:Generated_Source\PSoC6/CapSense_Structure.c **** ****************************************************************************//**
 836:Generated_Source\PSoC6/CapSense_Structure.c **** *
 837:Generated_Source\PSoC6/CapSense_Structure.c **** * \brief
 838:Generated_Source\PSoC6/CapSense_Structure.c **** *  Gets the specified parameter value from the \ref group_structures.
 839:Generated_Source\PSoC6/CapSense_Structure.c **** *
 840:Generated_Source\PSoC6/CapSense_Structure.c **** * \details
 841:Generated_Source\PSoC6/CapSense_Structure.c **** *  This function gets the value of the specified parameter by the paramId
 842:Generated_Source\PSoC6/CapSense_Structure.c **** *  argument. The paramId for each register is available in the
 843:Generated_Source\PSoC6/CapSense_Structure.c **** *  CapSense RegisterMap header file as
 844:Generated_Source\PSoC6/CapSense_Structure.c **** *  CapSense_<ParameterName>_PARAM_ID. The paramId is a special
 845:Generated_Source\PSoC6/CapSense_Structure.c **** *  enumerated value generated by the customizer. The format of paramId is as
 846:Generated_Source\PSoC6/CapSense_Structure.c **** *  follows:
 847:Generated_Source\PSoC6/CapSense_Structure.c **** *    1. [ byte 3 byte 2 byte 1 byte 0 ]
 848:Generated_Source\PSoC6/CapSense_Structure.c **** *    2. [ TTWFCCCC UIIIIIII MMMMMMMM LLLLLLLL ]
 849:Generated_Source\PSoC6/CapSense_Structure.c **** *    3. T - encodes the parameter type:
 850:Generated_Source\PSoC6/CapSense_Structure.c **** *      - 01b: uint8
 851:Generated_Source\PSoC6/CapSense_Structure.c **** *      - 10b: uint16
 852:Generated_Source\PSoC6/CapSense_Structure.c **** *      - 11b: uint32
 853:Generated_Source\PSoC6/CapSense_Structure.c **** *    4. W - indicates whether the parameter is writable:
 854:Generated_Source\PSoC6/CapSense_Structure.c **** *      - 0: ReadOnly
 855:Generated_Source\PSoC6/CapSense_Structure.c **** *      - 1: Read/Write
 856:Generated_Source\PSoC6/CapSense_Structure.c **** *    5. C - 4 bit CRC (X^3 + 1) of the whole paramId word, the C bits are
 857:Generated_Source\PSoC6/CapSense_Structure.c **** *       filled with 0s when the CRC is calculated.
 858:Generated_Source\PSoC6/CapSense_Structure.c **** *    6. U - indicates if the parameter affects the RAM Widget Object CRC.
 859:Generated_Source\PSoC6/CapSense_Structure.c **** *    7. I - specifies that the widgetId parameter belongs to
 860:Generated_Source\PSoC6/CapSense_Structure.c **** *    8. M,L - the parameter offset MSB and LSB accordingly in:
ARM GAS  C:\Users\User\AppData\Local\Temp\cczL1flU.s 			page 21


 861:Generated_Source\PSoC6/CapSense_Structure.c **** *      - Flash Data Structure if W bit is 0.
 862:Generated_Source\PSoC6/CapSense_Structure.c **** *      - RAM Data Structure if W bit is 1.
 863:Generated_Source\PSoC6/CapSense_Structure.c **** *
 864:Generated_Source\PSoC6/CapSense_Structure.c **** *  Refer to the \ref group_structures section for details of the data structure
 865:Generated_Source\PSoC6/CapSense_Structure.c **** *  organization and examples of its register access.
 866:Generated_Source\PSoC6/CapSense_Structure.c **** *
 867:Generated_Source\PSoC6/CapSense_Structure.c **** * \param paramId
 868:Generated_Source\PSoC6/CapSense_Structure.c **** *  Specifies the ID of parameter to get its value.
 869:Generated_Source\PSoC6/CapSense_Structure.c **** *  A macro for the parameter ID can be found in the CapSense RegisterMap header
 870:Generated_Source\PSoC6/CapSense_Structure.c **** *  file defined as CapSense_<ParameterName>_PARAM_ID.
 871:Generated_Source\PSoC6/CapSense_Structure.c **** *
 872:Generated_Source\PSoC6/CapSense_Structure.c **** * \param  value
 873:Generated_Source\PSoC6/CapSense_Structure.c **** *  The pointer to a variable to be updated with the obtained value.
 874:Generated_Source\PSoC6/CapSense_Structure.c **** *
 875:Generated_Source\PSoC6/CapSense_Structure.c **** * \return
 876:Generated_Source\PSoC6/CapSense_Structure.c **** *  Returns the status of the operation:
 877:Generated_Source\PSoC6/CapSense_Structure.c **** *    - CY_RET_SUCCESS - The operation is successfully completed.
 878:Generated_Source\PSoC6/CapSense_Structure.c **** *    - CY_RET_BAD_PARAM - The input parameter is invalid.
 879:Generated_Source\PSoC6/CapSense_Structure.c **** *
 880:Generated_Source\PSoC6/CapSense_Structure.c **** *******************************************************************************/
 881:Generated_Source\PSoC6/CapSense_Structure.c **** cy_status CapSense_GetParam(uint32 paramId, uint32 *value)
 882:Generated_Source\PSoC6/CapSense_Structure.c **** {
 255              		.loc 1 882 0
 256              		.cfi_startproc
 257              		@ args = 0, pretend = 0, frame = 8
 258              		@ frame_needed = 0, uses_anonymous_args = 0
 259              	.LVL28:
 260 0000 30B5     		push	{r4, r5, lr}
 261              		.cfi_def_cfa_offset 12
 262              		.cfi_offset 4, -12
 263              		.cfi_offset 5, -8
 264              		.cfi_offset 14, -4
 265 0002 83B0     		sub	sp, sp, #12
 266              		.cfi_def_cfa_offset 24
 267 0004 0D46     		mov	r5, r1
 883:Generated_Source\PSoC6/CapSense_Structure.c ****     PARAM_ID_STRUCT pData;
 884:Generated_Source\PSoC6/CapSense_Structure.c ****     cy_status result;
 885:Generated_Source\PSoC6/CapSense_Structure.c **** 
 886:Generated_Source\PSoC6/CapSense_Structure.c ****     union
 887:Generated_Source\PSoC6/CapSense_Structure.c ****     {
 888:Generated_Source\PSoC6/CapSense_Structure.c ****         volatile void   const * ptr;
 889:Generated_Source\PSoC6/CapSense_Structure.c ****         volatile uint8  const * ptrUint8;
 890:Generated_Source\PSoC6/CapSense_Structure.c ****         volatile uint16 const * ptrUint16;
 891:Generated_Source\PSoC6/CapSense_Structure.c ****         volatile uint32 const * ptrUint32;
 892:Generated_Source\PSoC6/CapSense_Structure.c ****     } ptrData;
 893:Generated_Source\PSoC6/CapSense_Structure.c **** 
 894:Generated_Source\PSoC6/CapSense_Structure.c ****     result = DsParseParamId(paramId, &pData);
 268              		.loc 1 894 0
 269 0006 6946     		mov	r1, sp
 270              	.LVL29:
 271 0008 FFF7FEFF 		bl	DsParseParamId
 272              	.LVL30:
 895:Generated_Source\PSoC6/CapSense_Structure.c **** 
 896:Generated_Source\PSoC6/CapSense_Structure.c ****     /* Parse and validate paramId */
 897:Generated_Source\PSoC6/CapSense_Structure.c ****     if (CY_RET_SUCCESS == result)
 273              		.loc 1 897 0
 274 000c 0446     		mov	r4, r0
ARM GAS  C:\Users\User\AppData\Local\Temp\cczL1flU.s 			page 22


 275 000e F8B9     		cbnz	r0, .L26
 898:Generated_Source\PSoC6/CapSense_Structure.c ****     {
 899:Generated_Source\PSoC6/CapSense_Structure.c ****         /* Get base address of parameter */
 900:Generated_Source\PSoC6/CapSense_Structure.c ****         if (0u == pData.flash)
 276              		.loc 1 900 0
 277 0010 9DF80530 		ldrb	r3, [sp, #5]	@ zero_extendqisi2
 278 0014 0BB9     		cbnz	r3, .L27
 901:Generated_Source\PSoC6/CapSense_Structure.c ****         {
 902:Generated_Source\PSoC6/CapSense_Structure.c ****             ptrData.ptr = &CapSense_dsRam;
 279              		.loc 1 902 0
 280 0016 1049     		ldr	r1, .L33
 281              	.LVL31:
 282 0018 00E0     		b	.L28
 283              	.L27:
 903:Generated_Source\PSoC6/CapSense_Structure.c ****         }
 904:Generated_Source\PSoC6/CapSense_Structure.c ****         else
 905:Generated_Source\PSoC6/CapSense_Structure.c ****         {
 906:Generated_Source\PSoC6/CapSense_Structure.c ****             ptrData.ptr = &CapSense_dsFlash;
 284              		.loc 1 906 0
 285 001a 1049     		ldr	r1, .L33+4
 286              	.L28:
 907:Generated_Source\PSoC6/CapSense_Structure.c ****         }
 908:Generated_Source\PSoC6/CapSense_Structure.c **** 
 909:Generated_Source\PSoC6/CapSense_Structure.c ****         /* Add offset to base address */
 910:Generated_Source\PSoC6/CapSense_Structure.c ****         ptrData.ptrUint8 += pData.offset;
 287              		.loc 1 910 0
 288 001c BDF80020 		ldrh	r2, [sp]
 289              	.LVL32:
 290 0020 8818     		adds	r0, r1, r2
 291              	.LVL33:
 911:Generated_Source\PSoC6/CapSense_Structure.c **** 
 912:Generated_Source\PSoC6/CapSense_Structure.c ****         /* Read data */
 913:Generated_Source\PSoC6/CapSense_Structure.c ****         if (DS_PARAM_TYPE_UINT8 == pData.type)
 292              		.loc 1 913 0
 293 0022 9DF80730 		ldrb	r3, [sp, #7]	@ zero_extendqisi2
 294 0026 012B     		cmp	r3, #1
 295 0028 02D1     		bne	.L29
 914:Generated_Source\PSoC6/CapSense_Structure.c ****         {
 915:Generated_Source\PSoC6/CapSense_Structure.c ****             *value = (uint32) (*ptrData.ptrUint8);
 296              		.loc 1 915 0
 297 002a 8B5C     		ldrb	r3, [r1, r2]	@ zero_extendqisi2
 298 002c 2B60     		str	r3, [r5]
 299 002e 0FE0     		b	.L26
 300              	.L29:
 916:Generated_Source\PSoC6/CapSense_Structure.c ****         }
 917:Generated_Source\PSoC6/CapSense_Structure.c ****         else if (DS_PARAM_TYPE_UINT16 == pData.type)
 301              		.loc 1 917 0
 302 0030 022B     		cmp	r3, #2
 303 0032 03D1     		bne	.L30
 918:Generated_Source\PSoC6/CapSense_Structure.c ****         {
 919:Generated_Source\PSoC6/CapSense_Structure.c ****             *value = (uint32) (*ptrData.ptrUint16);
 304              		.loc 1 919 0
 305 0034 0388     		ldrh	r3, [r0]
 306 0036 9BB2     		uxth	r3, r3
 307 0038 2B60     		str	r3, [r5]
 308 003a 09E0     		b	.L26
 309              	.L30:
ARM GAS  C:\Users\User\AppData\Local\Temp\cczL1flU.s 			page 23


 920:Generated_Source\PSoC6/CapSense_Structure.c ****         }
 921:Generated_Source\PSoC6/CapSense_Structure.c ****         else if (DS_PARAM_TYPE_UINT32 == pData.type)
 310              		.loc 1 921 0
 311 003c 032B     		cmp	r3, #3
 312 003e 02D1     		bne	.L31
 922:Generated_Source\PSoC6/CapSense_Structure.c ****         {
 923:Generated_Source\PSoC6/CapSense_Structure.c ****             *value = *ptrData.ptrUint32;
 313              		.loc 1 923 0
 314 0040 0368     		ldr	r3, [r0]
 315 0042 2B60     		str	r3, [r5]
 316 0044 04E0     		b	.L26
 317              	.L31:
 924:Generated_Source\PSoC6/CapSense_Structure.c ****         }
 925:Generated_Source\PSoC6/CapSense_Structure.c ****         else
 926:Generated_Source\PSoC6/CapSense_Structure.c ****         {
 927:Generated_Source\PSoC6/CapSense_Structure.c ****             /* Parameter comes here already validated. */
 928:Generated_Source\PSoC6/CapSense_Structure.c ****             CY_ASSERT(0 != 0);
 318              		.loc 1 928 0 discriminator 1
 319 0046 4FF46871 		mov	r1, #928
 320              	.LVL34:
 321 004a 0548     		ldr	r0, .L33+8
 322 004c FFF7FEFF 		bl	Cy_SysLib_AssertFailed
 323              	.LVL35:
 324              	.L26:
 929:Generated_Source\PSoC6/CapSense_Structure.c ****         }
 930:Generated_Source\PSoC6/CapSense_Structure.c ****     }
 931:Generated_Source\PSoC6/CapSense_Structure.c **** 
 932:Generated_Source\PSoC6/CapSense_Structure.c ****     return result;
 933:Generated_Source\PSoC6/CapSense_Structure.c **** }
 325              		.loc 1 933 0
 326 0050 2046     		mov	r0, r4
 327 0052 03B0     		add	sp, sp, #12
 328              		.cfi_def_cfa_offset 12
 329              		@ sp needed
 330 0054 30BD     		pop	{r4, r5, pc}
 331              	.LVL36:
 332              	.L34:
 333 0056 00BF     		.align	2
 334              	.L33:
 335 0058 00000000 		.word	CapSense_dsRam
 336 005c 0C000000 		.word	.LANCHOR0+12
 337 0060 00000000 		.word	.LC0
 338              		.cfi_endproc
 339              	.LFE127:
 340              		.size	CapSense_GetParam, .-CapSense_GetParam
 341              		.section	.text.CapSense_SetParam,"ax",%progbits
 342              		.align	2
 343              		.global	CapSense_SetParam
 344              		.thumb
 345              		.thumb_func
 346              		.type	CapSense_SetParam, %function
 347              	CapSense_SetParam:
 348              	.LFB128:
 934:Generated_Source\PSoC6/CapSense_Structure.c **** 
 935:Generated_Source\PSoC6/CapSense_Structure.c **** 
 936:Generated_Source\PSoC6/CapSense_Structure.c **** /*******************************************************************************
 937:Generated_Source\PSoC6/CapSense_Structure.c **** * Function Name: CapSense_SetParam
ARM GAS  C:\Users\User\AppData\Local\Temp\cczL1flU.s 			page 24


 938:Generated_Source\PSoC6/CapSense_Structure.c **** ****************************************************************************//**
 939:Generated_Source\PSoC6/CapSense_Structure.c **** *
 940:Generated_Source\PSoC6/CapSense_Structure.c **** * \brief
 941:Generated_Source\PSoC6/CapSense_Structure.c **** *  Sets a new value for the specified parameter in the \ref group_structures.
 942:Generated_Source\PSoC6/CapSense_Structure.c **** *
 943:Generated_Source\PSoC6/CapSense_Structure.c **** * \details
 944:Generated_Source\PSoC6/CapSense_Structure.c **** *  This function sets the value of the specified parameter by the paramId
 945:Generated_Source\PSoC6/CapSense_Structure.c **** *  argument. The paramId for each register is available in the
 946:Generated_Source\PSoC6/CapSense_Structure.c **** *  CapSense RegisterMap header file as
 947:Generated_Source\PSoC6/CapSense_Structure.c **** *  CapSense_<ParameterName>_PARAM_ID. The paramId is a special
 948:Generated_Source\PSoC6/CapSense_Structure.c **** *  enumerated value generated by the customizer. The format of paramId is as
 949:Generated_Source\PSoC6/CapSense_Structure.c **** *  follows:
 950:Generated_Source\PSoC6/CapSense_Structure.c **** *    1. [ byte 3 byte 2 byte 1 byte 0 ]
 951:Generated_Source\PSoC6/CapSense_Structure.c **** *    2. [ TTWFCCCC UIIIIIII MMMMMMMM LLLLLLLL ]
 952:Generated_Source\PSoC6/CapSense_Structure.c **** *    3. T - encodes the parameter type:
 953:Generated_Source\PSoC6/CapSense_Structure.c **** *      - 01b: uint8
 954:Generated_Source\PSoC6/CapSense_Structure.c **** *      - 10b: uint16
 955:Generated_Source\PSoC6/CapSense_Structure.c **** *      - 11b: uint32
 956:Generated_Source\PSoC6/CapSense_Structure.c **** *    4. W - indicates whether the parameter is writable:
 957:Generated_Source\PSoC6/CapSense_Structure.c **** *      - 0: ReadOnly
 958:Generated_Source\PSoC6/CapSense_Structure.c **** *      - 1: Read/Write
 959:Generated_Source\PSoC6/CapSense_Structure.c **** *    5. C - 4 bit CRC (X^3 + 1) of the whole paramId word, the C bits are
 960:Generated_Source\PSoC6/CapSense_Structure.c **** *       filled with 0s when the CRC is calculated.
 961:Generated_Source\PSoC6/CapSense_Structure.c **** *    6. U - indicates if the parameter affects the RAM Widget Object CRC.
 962:Generated_Source\PSoC6/CapSense_Structure.c **** *    7. I - specifies that the widgetId parameter belongs to
 963:Generated_Source\PSoC6/CapSense_Structure.c **** *    8. M,L - the parameter offset MSB and LSB accordingly in:
 964:Generated_Source\PSoC6/CapSense_Structure.c **** *      - Flash Data Structure if W bit is 0.
 965:Generated_Source\PSoC6/CapSense_Structure.c **** *      - RAM Data Structure if W bit is 1.
 966:Generated_Source\PSoC6/CapSense_Structure.c **** *
 967:Generated_Source\PSoC6/CapSense_Structure.c **** *  Refer to the \ref group_structures section for details of the data structure
 968:Generated_Source\PSoC6/CapSense_Structure.c **** *  organization and examples of its register access.
 969:Generated_Source\PSoC6/CapSense_Structure.c **** *
 970:Generated_Source\PSoC6/CapSense_Structure.c **** *  This function writes specified value into the desired register without
 971:Generated_Source\PSoC6/CapSense_Structure.c **** *  other registers update. It is application layer responsibility to keep all
 972:Generated_Source\PSoC6/CapSense_Structure.c **** *  the data structure registers aligned. Repeated call of
 973:Generated_Source\PSoC6/CapSense_Structure.c **** *  CapSense_Start() function helps aligning dependent register values.
 974:Generated_Source\PSoC6/CapSense_Structure.c **** *
 975:Generated_Source\PSoC6/CapSense_Structure.c **** * \param paramId
 976:Generated_Source\PSoC6/CapSense_Structure.c **** *  Specifies the ID of parameter to set its value.
 977:Generated_Source\PSoC6/CapSense_Structure.c **** *  A macro for the parameter ID can be found in the CapSense RegisterMap header
 978:Generated_Source\PSoC6/CapSense_Structure.c **** *  file defined as CapSense_<ParameterName>_PARAM_ID.
 979:Generated_Source\PSoC6/CapSense_Structure.c **** 
 980:Generated_Source\PSoC6/CapSense_Structure.c **** * \param value
 981:Generated_Source\PSoC6/CapSense_Structure.c **** *  Specifies the new parameter's value.
 982:Generated_Source\PSoC6/CapSense_Structure.c **** *
 983:Generated_Source\PSoC6/CapSense_Structure.c **** * \return
 984:Generated_Source\PSoC6/CapSense_Structure.c **** *  Returns the status of the operation:
 985:Generated_Source\PSoC6/CapSense_Structure.c **** *    - CY_RET_SUCCESS - The operation is successfully completed.
 986:Generated_Source\PSoC6/CapSense_Structure.c **** *    - CY_RET_BAD_PARAM - The input parameter is invalid.
 987:Generated_Source\PSoC6/CapSense_Structure.c **** *
 988:Generated_Source\PSoC6/CapSense_Structure.c **** *******************************************************************************/
 989:Generated_Source\PSoC6/CapSense_Structure.c **** cy_status CapSense_SetParam(uint32 paramId, uint32 value)
 990:Generated_Source\PSoC6/CapSense_Structure.c **** {
 349              		.loc 1 990 0
 350              		.cfi_startproc
 351              		@ args = 0, pretend = 0, frame = 8
 352              		@ frame_needed = 0, uses_anonymous_args = 0
ARM GAS  C:\Users\User\AppData\Local\Temp\cczL1flU.s 			page 25


 353              	.LVL37:
 354 0000 30B5     		push	{r4, r5, lr}
 355              		.cfi_def_cfa_offset 12
 356              		.cfi_offset 4, -12
 357              		.cfi_offset 5, -8
 358              		.cfi_offset 14, -4
 359 0002 83B0     		sub	sp, sp, #12
 360              		.cfi_def_cfa_offset 24
 361 0004 0D46     		mov	r5, r1
 991:Generated_Source\PSoC6/CapSense_Structure.c ****     cy_status result;
 992:Generated_Source\PSoC6/CapSense_Structure.c ****     PARAM_ID_STRUCT pData;
 993:Generated_Source\PSoC6/CapSense_Structure.c **** 
 994:Generated_Source\PSoC6/CapSense_Structure.c ****     union
 995:Generated_Source\PSoC6/CapSense_Structure.c ****     {
 996:Generated_Source\PSoC6/CapSense_Structure.c ****         volatile void   * ptr;
 997:Generated_Source\PSoC6/CapSense_Structure.c ****         volatile uint8  * ptrUint8;
 998:Generated_Source\PSoC6/CapSense_Structure.c ****         volatile uint16 * ptrUint16;
 999:Generated_Source\PSoC6/CapSense_Structure.c ****         volatile uint32 * ptrUint32;
1000:Generated_Source\PSoC6/CapSense_Structure.c ****     } ptrData;
1001:Generated_Source\PSoC6/CapSense_Structure.c **** 
1002:Generated_Source\PSoC6/CapSense_Structure.c ****     result = DsParseParamId(paramId, &pData);
 362              		.loc 1 1002 0
 363 0006 6946     		mov	r1, sp
 364              	.LVL38:
 365 0008 FFF7FEFF 		bl	DsParseParamId
 366              	.LVL39:
1003:Generated_Source\PSoC6/CapSense_Structure.c **** 
1004:Generated_Source\PSoC6/CapSense_Structure.c ****     /* verify if parameter is writable */
1005:Generated_Source\PSoC6/CapSense_Structure.c ****     if (CY_RET_SUCCESS == result)
 367              		.loc 1 1005 0
 368 000c 0446     		mov	r4, r0
 369 000e 18B9     		cbnz	r0, .L36
1006:Generated_Source\PSoC6/CapSense_Structure.c ****     {
1007:Generated_Source\PSoC6/CapSense_Structure.c ****         if (0u == pData.rw)
 370              		.loc 1 1007 0
 371 0010 9DF80630 		ldrb	r3, [sp, #6]	@ zero_extendqisi2
 372 0014 03B9     		cbnz	r3, .L36
1008:Generated_Source\PSoC6/CapSense_Structure.c ****         {
1009:Generated_Source\PSoC6/CapSense_Structure.c ****             result = CY_RET_BAD_PARAM;
 373              		.loc 1 1009 0
 374 0016 0124     		movs	r4, #1
 375              	.L36:
 376              	.LVL40:
1010:Generated_Source\PSoC6/CapSense_Structure.c ****         }
1011:Generated_Source\PSoC6/CapSense_Structure.c ****     }
1012:Generated_Source\PSoC6/CapSense_Structure.c **** 
1013:Generated_Source\PSoC6/CapSense_Structure.c ****     /* Parse and validate paramId */
1014:Generated_Source\PSoC6/CapSense_Structure.c ****     if (CY_RET_SUCCESS == result)
 377              		.loc 1 1014 0
 378 0018 BCB9     		cbnz	r4, .L37
1015:Generated_Source\PSoC6/CapSense_Structure.c ****     {
1016:Generated_Source\PSoC6/CapSense_Structure.c ****         /* Get base address of parameter */
1017:Generated_Source\PSoC6/CapSense_Structure.c ****         ptrData.ptr = &CapSense_dsRam;
1018:Generated_Source\PSoC6/CapSense_Structure.c **** 
1019:Generated_Source\PSoC6/CapSense_Structure.c ****         /* Add offset to base address */
1020:Generated_Source\PSoC6/CapSense_Structure.c ****         ptrData.ptrUint8 += pData.offset;
 379              		.loc 1 1020 0
ARM GAS  C:\Users\User\AppData\Local\Temp\cczL1flU.s 			page 26


 380 001a BDF80010 		ldrh	r1, [sp]
 381 001e 0C4A     		ldr	r2, .L43
1021:Generated_Source\PSoC6/CapSense_Structure.c **** 
1022:Generated_Source\PSoC6/CapSense_Structure.c ****         /* Write data */
1023:Generated_Source\PSoC6/CapSense_Structure.c ****         if (DS_PARAM_TYPE_UINT8 == pData.type)
 382              		.loc 1 1023 0
 383 0020 9DF80730 		ldrb	r3, [sp, #7]	@ zero_extendqisi2
 384 0024 012B     		cmp	r3, #1
 385 0026 02D1     		bne	.L38
1024:Generated_Source\PSoC6/CapSense_Structure.c ****         {
1025:Generated_Source\PSoC6/CapSense_Structure.c ****             *ptrData.ptrUint8 = CY_LO8(value);
 386              		.loc 1 1025 0
 387 0028 EDB2     		uxtb	r5, r5
 388              	.LVL41:
 389 002a 8D54     		strb	r5, [r1, r2]
 390 002c 0DE0     		b	.L37
 391              	.LVL42:
 392              	.L38:
1026:Generated_Source\PSoC6/CapSense_Structure.c ****         }
1027:Generated_Source\PSoC6/CapSense_Structure.c ****         else if (DS_PARAM_TYPE_UINT16 == pData.type)
 393              		.loc 1 1027 0
 394 002e 022B     		cmp	r3, #2
 395 0030 02D1     		bne	.L39
1028:Generated_Source\PSoC6/CapSense_Structure.c ****         {
1029:Generated_Source\PSoC6/CapSense_Structure.c ****             *ptrData.ptrUint16 = CY_LO16(value);
 396              		.loc 1 1029 0
 397 0032 ADB2     		uxth	r5, r5
 398              	.LVL43:
 399 0034 8D52     		strh	r5, [r1, r2]	@ movhi
 400 0036 08E0     		b	.L37
 401              	.LVL44:
 402              	.L39:
1030:Generated_Source\PSoC6/CapSense_Structure.c ****         }
1031:Generated_Source\PSoC6/CapSense_Structure.c ****         else if (DS_PARAM_TYPE_UINT32 == pData.type)
 403              		.loc 1 1031 0
 404 0038 032B     		cmp	r3, #3
 405 003a 01D1     		bne	.L40
1032:Generated_Source\PSoC6/CapSense_Structure.c ****         {
1033:Generated_Source\PSoC6/CapSense_Structure.c ****             *ptrData.ptrUint32 = value;
 406              		.loc 1 1033 0
 407 003c 8D50     		str	r5, [r1, r2]
 408 003e 04E0     		b	.L37
 409              	.L40:
1034:Generated_Source\PSoC6/CapSense_Structure.c ****         }
1035:Generated_Source\PSoC6/CapSense_Structure.c ****         else
1036:Generated_Source\PSoC6/CapSense_Structure.c ****         {
1037:Generated_Source\PSoC6/CapSense_Structure.c ****             /* Parameter comes here already validated. */
1038:Generated_Source\PSoC6/CapSense_Structure.c ****             CY_ASSERT(0 != 0);
 410              		.loc 1 1038 0 discriminator 1
 411 0040 40F20E41 		movw	r1, #1038
 412 0044 0348     		ldr	r0, .L43+4
 413 0046 FFF7FEFF 		bl	Cy_SysLib_AssertFailed
 414              	.LVL45:
 415              	.L37:
1039:Generated_Source\PSoC6/CapSense_Structure.c ****         }
1040:Generated_Source\PSoC6/CapSense_Structure.c **** 
1041:Generated_Source\PSoC6/CapSense_Structure.c ****         #if (CapSense_ENABLE == (CapSense_TST_WDGT_CRC_EN || CapSense_TST_GLOBAL_CRC_EN))
ARM GAS  C:\Users\User\AppData\Local\Temp\cczL1flU.s 			page 27


1042:Generated_Source\PSoC6/CapSense_Structure.c ****             /* Update widget or global CRC if self-test is enabled and parameter affects it */
1043:Generated_Source\PSoC6/CapSense_Structure.c ****             if (0u != pData.affectsCrc)
1044:Generated_Source\PSoC6/CapSense_Structure.c ****             {
1045:Generated_Source\PSoC6/CapSense_Structure.c ****                 if ((ptrData.ptrUint16 >= &CapSense_dsRam.csd0Config) &&
1046:Generated_Source\PSoC6/CapSense_Structure.c ****                     (ptrData.ptrUint16 <  &CapSense_dsRam.glbCrc))
1047:Generated_Source\PSoC6/CapSense_Structure.c ****                 {
1048:Generated_Source\PSoC6/CapSense_Structure.c **** 
1049:Generated_Source\PSoC6/CapSense_Structure.c ****                     #if (CapSense_ENABLE == CapSense_TST_GLOBAL_CRC_EN)
1050:Generated_Source\PSoC6/CapSense_Structure.c ****                         CapSense_DsUpdateGlobalCrc();
1051:Generated_Source\PSoC6/CapSense_Structure.c ****                     #endif /* (CapSense_ENABLE == CapSense_TST_GLOBAL_CRC_EN) */
1052:Generated_Source\PSoC6/CapSense_Structure.c **** 
1053:Generated_Source\PSoC6/CapSense_Structure.c ****                 }
1054:Generated_Source\PSoC6/CapSense_Structure.c ****                 else
1055:Generated_Source\PSoC6/CapSense_Structure.c ****                 {
1056:Generated_Source\PSoC6/CapSense_Structure.c ****                     #if (CapSense_ENABLE == CapSense_TST_WDGT_CRC_EN)
1057:Generated_Source\PSoC6/CapSense_Structure.c ****                         CapSense_DsUpdateWidgetCrc((uint32)pData.widgetId);
1058:Generated_Source\PSoC6/CapSense_Structure.c ****                     #endif /* (CapSense_ENABLE == CapSense_TST_WDGT_CRC_EN) */
1059:Generated_Source\PSoC6/CapSense_Structure.c ****                 }
1060:Generated_Source\PSoC6/CapSense_Structure.c ****             }
1061:Generated_Source\PSoC6/CapSense_Structure.c ****         #endif /* (CapSense_ENABLE == (CapSense_TST_WDGT_CRC_EN || CapSense_TST_GLOBAL_CRC_EN)) */
1062:Generated_Source\PSoC6/CapSense_Structure.c ****     }
1063:Generated_Source\PSoC6/CapSense_Structure.c **** 
1064:Generated_Source\PSoC6/CapSense_Structure.c ****     return result;
1065:Generated_Source\PSoC6/CapSense_Structure.c **** }
 416              		.loc 1 1065 0
 417 004a 2046     		mov	r0, r4
 418 004c 03B0     		add	sp, sp, #12
 419              		.cfi_def_cfa_offset 12
 420              		@ sp needed
 421 004e 30BD     		pop	{r4, r5, pc}
 422              	.LVL46:
 423              	.L44:
 424              		.align	2
 425              	.L43:
 426 0050 00000000 		.word	CapSense_dsRam
 427 0054 00000000 		.word	.LC0
 428              		.cfi_endproc
 429              	.LFE128:
 430              		.size	CapSense_SetParam, .-CapSense_SetParam
 431              		.section	.text.CapSense_IsAnyWidgetActive,"ax",%progbits
 432              		.align	2
 433              		.global	CapSense_IsAnyWidgetActive
 434              		.thumb
 435              		.thumb_func
 436              		.type	CapSense_IsAnyWidgetActive, %function
 437              	CapSense_IsAnyWidgetActive:
 438              	.LFB129:
1066:Generated_Source\PSoC6/CapSense_Structure.c **** 
1067:Generated_Source\PSoC6/CapSense_Structure.c **** /*******************************************************************************
1068:Generated_Source\PSoC6/CapSense_Structure.c **** * Function Name: CapSense_IsAnyWidgetActive
1069:Generated_Source\PSoC6/CapSense_Structure.c **** ****************************************************************************//**
1070:Generated_Source\PSoC6/CapSense_Structure.c **** *
1071:Generated_Source\PSoC6/CapSense_Structure.c **** * \brief
1072:Generated_Source\PSoC6/CapSense_Structure.c **** *  Reports if any widget has detected a touch.
1073:Generated_Source\PSoC6/CapSense_Structure.c **** *
1074:Generated_Source\PSoC6/CapSense_Structure.c **** * \details
1075:Generated_Source\PSoC6/CapSense_Structure.c **** *  This function reports if any widget has detected a touch or not by extracting
ARM GAS  C:\Users\User\AppData\Local\Temp\cczL1flU.s 			page 28


1076:Generated_Source\PSoC6/CapSense_Structure.c **** *  information from the wdgtStatus registers
1077:Generated_Source\PSoC6/CapSense_Structure.c **** *  (CapSense_WDGT_STATUS<X>_VALUE). This function does not process a
1078:Generated_Source\PSoC6/CapSense_Structure.c **** *  widget but extracts processed results from the \ref group_structures.
1079:Generated_Source\PSoC6/CapSense_Structure.c **** *
1080:Generated_Source\PSoC6/CapSense_Structure.c **** * \return
1081:Generated_Source\PSoC6/CapSense_Structure.c **** *   Returns the touch detection status of all the widgets:
1082:Generated_Source\PSoC6/CapSense_Structure.c **** *     - Zero - No touch is detected in all the widgets or sensors.
1083:Generated_Source\PSoC6/CapSense_Structure.c **** *     - Non-zero - At least one widget or sensor detected a touch.
1084:Generated_Source\PSoC6/CapSense_Structure.c **** *
1085:Generated_Source\PSoC6/CapSense_Structure.c **** *******************************************************************************/
1086:Generated_Source\PSoC6/CapSense_Structure.c **** uint32 CapSense_IsAnyWidgetActive(void)
1087:Generated_Source\PSoC6/CapSense_Structure.c **** {
 439              		.loc 1 1087 0
 440              		.cfi_startproc
 441              		@ args = 0, pretend = 0, frame = 0
 442              		@ frame_needed = 0, uses_anonymous_args = 0
 443              		@ link register save eliminated.
 444              	.LVL47:
1088:Generated_Source\PSoC6/CapSense_Structure.c ****     uint32 result = 0Lu;
1089:Generated_Source\PSoC6/CapSense_Structure.c ****     uint32 wdWord;
1090:Generated_Source\PSoC6/CapSense_Structure.c **** 
1091:Generated_Source\PSoC6/CapSense_Structure.c ****     for (wdWord = CapSense_WDGT_STATUS_WORDS; wdWord-- > 0u;)
 445              		.loc 1 1091 0
 446 0000 0123     		movs	r3, #1
1088:Generated_Source\PSoC6/CapSense_Structure.c ****     uint32 result = 0Lu;
 447              		.loc 1 1088 0
 448 0002 0020     		movs	r0, #0
 449              		.loc 1 1091 0
 450 0004 06E0     		b	.L46
 451              	.LVL48:
 452              	.L47:
1092:Generated_Source\PSoC6/CapSense_Structure.c ****     {
1093:Generated_Source\PSoC6/CapSense_Structure.c ****         result |= CapSense_dsRam.wdgtStatus[wdWord];
 453              		.loc 1 1093 0
 454 0006 111D     		adds	r1, r2, #4
 455 0008 044B     		ldr	r3, .L48
 456 000a 03EB8103 		add	r3, r3, r1, lsl #2
 457 000e 5B68     		ldr	r3, [r3, #4]
 458 0010 1843     		orrs	r0, r0, r3
 459              	.LVL49:
1091:Generated_Source\PSoC6/CapSense_Structure.c ****     {
 460              		.loc 1 1091 0
 461 0012 1346     		mov	r3, r2
 462              	.LVL50:
 463              	.L46:
1091:Generated_Source\PSoC6/CapSense_Structure.c ****     {
 464              		.loc 1 1091 0 is_stmt 0 discriminator 1
 465 0014 5A1E     		subs	r2, r3, #1
 466              	.LVL51:
 467 0016 002B     		cmp	r3, #0
 468 0018 F5D1     		bne	.L47
1094:Generated_Source\PSoC6/CapSense_Structure.c ****     }
1095:Generated_Source\PSoC6/CapSense_Structure.c **** 
1096:Generated_Source\PSoC6/CapSense_Structure.c ****     return result;
1097:Generated_Source\PSoC6/CapSense_Structure.c **** }
 469              		.loc 1 1097 0 is_stmt 1
 470 001a 7047     		bx	lr
ARM GAS  C:\Users\User\AppData\Local\Temp\cczL1flU.s 			page 29


 471              	.L49:
 472              		.align	2
 473              	.L48:
 474 001c 00000000 		.word	CapSense_dsRam
 475              		.cfi_endproc
 476              	.LFE129:
 477              		.size	CapSense_IsAnyWidgetActive, .-CapSense_IsAnyWidgetActive
 478              		.section	.text.CapSense_IsWidgetActive,"ax",%progbits
 479              		.align	2
 480              		.global	CapSense_IsWidgetActive
 481              		.thumb
 482              		.thumb_func
 483              		.type	CapSense_IsWidgetActive, %function
 484              	CapSense_IsWidgetActive:
 485              	.LFB130:
1098:Generated_Source\PSoC6/CapSense_Structure.c **** 
1099:Generated_Source\PSoC6/CapSense_Structure.c **** 
1100:Generated_Source\PSoC6/CapSense_Structure.c **** /*******************************************************************************
1101:Generated_Source\PSoC6/CapSense_Structure.c **** * Function Name: CapSense_IsWidgetActive
1102:Generated_Source\PSoC6/CapSense_Structure.c **** ****************************************************************************//**
1103:Generated_Source\PSoC6/CapSense_Structure.c **** *
1104:Generated_Source\PSoC6/CapSense_Structure.c **** * \brief
1105:Generated_Source\PSoC6/CapSense_Structure.c **** *  Reports if the specified widget detects a touch on any of its sensors.
1106:Generated_Source\PSoC6/CapSense_Structure.c **** *
1107:Generated_Source\PSoC6/CapSense_Structure.c **** * \details
1108:Generated_Source\PSoC6/CapSense_Structure.c **** *  This function reports if the specified widget has detected a touch or not by
1109:Generated_Source\PSoC6/CapSense_Structure.c **** *  extracting information from the wdgtStatus registers
1110:Generated_Source\PSoC6/CapSense_Structure.c **** *  (CapSense_WDGT_STATUS<X>_VALUE). This function does not process the
1111:Generated_Source\PSoC6/CapSense_Structure.c **** *  widget but extracts processed results from the \ref group_structures.
1112:Generated_Source\PSoC6/CapSense_Structure.c **** *
1113:Generated_Source\PSoC6/CapSense_Structure.c **** * \param widgetId
1114:Generated_Source\PSoC6/CapSense_Structure.c **** *  Specifies the ID number of the widget to get its status.
1115:Generated_Source\PSoC6/CapSense_Structure.c **** *  A macro for the widget ID can be found in the CapSense Configuration header
1116:Generated_Source\PSoC6/CapSense_Structure.c **** *  file defined as CapSense_<WidgetName>_WDGT_ID.
1117:Generated_Source\PSoC6/CapSense_Structure.c **** *
1118:Generated_Source\PSoC6/CapSense_Structure.c **** * \return
1119:Generated_Source\PSoC6/CapSense_Structure.c **** *  Returns the touch detection status of the specified widgets:
1120:Generated_Source\PSoC6/CapSense_Structure.c **** *    - Zero - No touch is detected in the specified widget or a wrong widgetId
1121:Generated_Source\PSoC6/CapSense_Structure.c **** *      is specified.
1122:Generated_Source\PSoC6/CapSense_Structure.c **** *    - Non-zero if at least one sensor of the specified widget is active, i.e.
1123:Generated_Source\PSoC6/CapSense_Structure.c **** *      a touch is detected.
1124:Generated_Source\PSoC6/CapSense_Structure.c **** *
1125:Generated_Source\PSoC6/CapSense_Structure.c **** *******************************************************************************/
1126:Generated_Source\PSoC6/CapSense_Structure.c **** uint32 CapSense_IsWidgetActive(uint32 widgetId)
1127:Generated_Source\PSoC6/CapSense_Structure.c **** {
 486              		.loc 1 1127 0
 487              		.cfi_startproc
 488              		@ args = 0, pretend = 0, frame = 0
 489              		@ frame_needed = 0, uses_anonymous_args = 0
 490              		@ link register save eliminated.
 491              	.LVL52:
1128:Generated_Source\PSoC6/CapSense_Structure.c ****     uint32 result = 0Lu;
1129:Generated_Source\PSoC6/CapSense_Structure.c **** 
1130:Generated_Source\PSoC6/CapSense_Structure.c ****     if (widgetId < CapSense_TOTAL_WIDGETS)
 492              		.loc 1 1130 0
 493 0000 0928     		cmp	r0, #9
 494 0002 0DD8     		bhi	.L52
ARM GAS  C:\Users\User\AppData\Local\Temp\cczL1flU.s 			page 30


1131:Generated_Source\PSoC6/CapSense_Structure.c ****     {
1132:Generated_Source\PSoC6/CapSense_Structure.c ****         result = CapSense_GET_WIDGET_ACTIVE_STATUS(widgetId);
 495              		.loc 1 1132 0
 496 0004 00F01F02 		and	r2, r0, #31
 497 0008 0123     		movs	r3, #1
 498 000a 03FA02F2 		lsl	r2, r3, r2
 499 000e 4009     		lsrs	r0, r0, #5
 500              	.LVL53:
 501 0010 031D     		adds	r3, r0, #4
 502 0012 0448     		ldr	r0, .L53
 503 0014 00EB8303 		add	r3, r0, r3, lsl #2
 504 0018 5B68     		ldr	r3, [r3, #4]
 505 001a 02EA0300 		and	r0, r2, r3
 506              	.LVL54:
 507 001e 7047     		bx	lr
 508              	.LVL55:
 509              	.L52:
1128:Generated_Source\PSoC6/CapSense_Structure.c ****     uint32 result = 0Lu;
 510              		.loc 1 1128 0
 511 0020 0020     		movs	r0, #0
 512              	.LVL56:
1133:Generated_Source\PSoC6/CapSense_Structure.c ****     }
1134:Generated_Source\PSoC6/CapSense_Structure.c ****     return result;
1135:Generated_Source\PSoC6/CapSense_Structure.c **** }
 513              		.loc 1 1135 0
 514 0022 7047     		bx	lr
 515              	.L54:
 516              		.align	2
 517              	.L53:
 518 0024 00000000 		.word	CapSense_dsRam
 519              		.cfi_endproc
 520              	.LFE130:
 521              		.size	CapSense_IsWidgetActive, .-CapSense_IsWidgetActive
 522              		.section	.text.CapSense_IsSensorActive,"ax",%progbits
 523              		.align	2
 524              		.global	CapSense_IsSensorActive
 525              		.thumb
 526              		.thumb_func
 527              		.type	CapSense_IsSensorActive, %function
 528              	CapSense_IsSensorActive:
 529              	.LFB131:
1136:Generated_Source\PSoC6/CapSense_Structure.c **** 
1137:Generated_Source\PSoC6/CapSense_Structure.c **** 
1138:Generated_Source\PSoC6/CapSense_Structure.c **** /*******************************************************************************
1139:Generated_Source\PSoC6/CapSense_Structure.c **** * Function Name: CapSense_IsSensorActive
1140:Generated_Source\PSoC6/CapSense_Structure.c **** ****************************************************************************//**
1141:Generated_Source\PSoC6/CapSense_Structure.c **** *
1142:Generated_Source\PSoC6/CapSense_Structure.c **** * \brief
1143:Generated_Source\PSoC6/CapSense_Structure.c **** *  Reports if the specified sensor in the widget detects a touch.
1144:Generated_Source\PSoC6/CapSense_Structure.c **** *
1145:Generated_Source\PSoC6/CapSense_Structure.c **** * \details
1146:Generated_Source\PSoC6/CapSense_Structure.c **** *  This function reports if the specified sensor in the widget has detected a
1147:Generated_Source\PSoC6/CapSense_Structure.c **** *  touch or not by extracting information from the wdgtStatus registers
1148:Generated_Source\PSoC6/CapSense_Structure.c **** *  (CapSense_WDGT_STATUS<X>_VALUE). This function does not process the
1149:Generated_Source\PSoC6/CapSense_Structure.c **** *  widget or sensor but extracts processed results from the \ref group_structures.
1150:Generated_Source\PSoC6/CapSense_Structure.c **** *
1151:Generated_Source\PSoC6/CapSense_Structure.c **** *  For proximity sensors, this function returns the proximity detection status. To
ARM GAS  C:\Users\User\AppData\Local\Temp\cczL1flU.s 			page 31


1152:Generated_Source\PSoC6/CapSense_Structure.c **** *  get the finger touch status of proximity sensors, use the
1153:Generated_Source\PSoC6/CapSense_Structure.c **** *  CapSense_IsProximitySensorActive() function.
1154:Generated_Source\PSoC6/CapSense_Structure.c **** *
1155:Generated_Source\PSoC6/CapSense_Structure.c **** * \param widgetId
1156:Generated_Source\PSoC6/CapSense_Structure.c **** *  Specifies the ID number of the widget.
1157:Generated_Source\PSoC6/CapSense_Structure.c **** *  A macro for the widget ID can be found in the CapSense Configuration header
1158:Generated_Source\PSoC6/CapSense_Structure.c **** *  file defined as CapSense_<WidgetName>_WDGT_ID.
1159:Generated_Source\PSoC6/CapSense_Structure.c **** 
1160:Generated_Source\PSoC6/CapSense_Structure.c **** * \param sensorId
1161:Generated_Source\PSoC6/CapSense_Structure.c **** *  Specifies the ID number of the sensor within the widget to get its touch
1162:Generated_Source\PSoC6/CapSense_Structure.c **** *  detection status.
1163:Generated_Source\PSoC6/CapSense_Structure.c **** *  A macro for the sensor ID within the specified widget can be found in the
1164:Generated_Source\PSoC6/CapSense_Structure.c **** *  CapSense Configuration header file defined as
1165:Generated_Source\PSoC6/CapSense_Structure.c **** *  CapSense_<WidgetName>_SNS<SensorNumber>_ID.
1166:Generated_Source\PSoC6/CapSense_Structure.c **** *
1167:Generated_Source\PSoC6/CapSense_Structure.c **** * \return
1168:Generated_Source\PSoC6/CapSense_Structure.c **** *  Returns the touch detection status of the specified sensor / widget:
1169:Generated_Source\PSoC6/CapSense_Structure.c **** *    - Zero if no touch is detected in the specified sensor / widget or a wrong
1170:Generated_Source\PSoC6/CapSense_Structure.c **** *      widget ID / sensor ID is specified.
1171:Generated_Source\PSoC6/CapSense_Structure.c **** *    - Non-zero if the specified sensor is active i.e. touch is detected. If the
1172:Generated_Source\PSoC6/CapSense_Structure.c **** *      specific sensor belongs to a proximity widget, the proximity detection
1173:Generated_Source\PSoC6/CapSense_Structure.c **** *      status is returned.
1174:Generated_Source\PSoC6/CapSense_Structure.c **** *
1175:Generated_Source\PSoC6/CapSense_Structure.c **** *******************************************************************************/
1176:Generated_Source\PSoC6/CapSense_Structure.c **** uint32 CapSense_IsSensorActive(uint32 widgetId, uint32 sensorId)
1177:Generated_Source\PSoC6/CapSense_Structure.c **** {
 530              		.loc 1 1177 0
 531              		.cfi_startproc
 532              		@ args = 0, pretend = 0, frame = 0
 533              		@ frame_needed = 0, uses_anonymous_args = 0
 534              		@ link register save eliminated.
 535              	.LVL57:
1178:Generated_Source\PSoC6/CapSense_Structure.c ****     uint32 result = 0Lu;
1179:Generated_Source\PSoC6/CapSense_Structure.c **** 
1180:Generated_Source\PSoC6/CapSense_Structure.c ****     if ((widgetId < CapSense_TOTAL_WIDGETS) &&
 536              		.loc 1 1180 0
 537 0000 0928     		cmp	r0, #9
 538 0002 0FD8     		bhi	.L57
1181:Generated_Source\PSoC6/CapSense_Structure.c ****         (sensorId < CapSense_GET_SENSOR_COUNT(widgetId)))
 539              		.loc 1 1181 0 discriminator 1
 540 0004 C0EBC002 		rsb	r2, r0, r0, lsl #3
 541 0008 9300     		lsls	r3, r2, #2
 542 000a 084A     		ldr	r2, .L59
 543 000c 1344     		add	r3, r3, r2
 544 000e 9B8C     		ldrh	r3, [r3, #36]
1180:Generated_Source\PSoC6/CapSense_Structure.c ****         (sensorId < CapSense_GET_SENSOR_COUNT(widgetId)))
 545              		.loc 1 1180 0 discriminator 1
 546 0010 8B42     		cmp	r3, r1
 547 0012 09D9     		bls	.L58
1182:Generated_Source\PSoC6/CapSense_Structure.c ****     {
1183:Generated_Source\PSoC6/CapSense_Structure.c ****         #if (CapSense_ENABLE == CapSense_PROXIMITY_WIDGET_EN)
1184:Generated_Source\PSoC6/CapSense_Structure.c ****             if (CapSense_WD_PROXIMITY_E ==
1185:Generated_Source\PSoC6/CapSense_Structure.c ****                 (CapSense_WD_TYPE_ENUM)CapSense_dsFlash.wdgtArray[widgetId].wdgtType)
1186:Generated_Source\PSoC6/CapSense_Structure.c ****             {
1187:Generated_Source\PSoC6/CapSense_Structure.c ****                 sensorId = CapSense_PROX_STS_OFFSET(sensorId);
1188:Generated_Source\PSoC6/CapSense_Structure.c ****             }
1189:Generated_Source\PSoC6/CapSense_Structure.c ****         #endif /* (CapSense_ENABLE != CapSense_PROXIMITY_WIDGET_EN) */
ARM GAS  C:\Users\User\AppData\Local\Temp\cczL1flU.s 			page 32


1190:Generated_Source\PSoC6/CapSense_Structure.c ****         result = CapSense_dsRam.snsStatus[widgetId] & (1Lu << sensorId);
 548              		.loc 1 1190 0
 549 0014 064B     		ldr	r3, .L59+4
 550 0016 1844     		add	r0, r0, r3
 551              	.LVL58:
 552 0018 007E     		ldrb	r0, [r0, #24]	@ zero_extendqisi2
 553              	.LVL59:
 554 001a 0123     		movs	r3, #1
 555 001c 03FA01F1 		lsl	r1, r3, r1
 556              	.LVL60:
 557 0020 0840     		ands	r0, r0, r1
 558              	.LVL61:
 559 0022 7047     		bx	lr
 560              	.LVL62:
 561              	.L57:
1178:Generated_Source\PSoC6/CapSense_Structure.c **** 
 562              		.loc 1 1178 0
 563 0024 0020     		movs	r0, #0
 564              	.LVL63:
 565 0026 7047     		bx	lr
 566              	.LVL64:
 567              	.L58:
 568 0028 0020     		movs	r0, #0
 569              	.LVL65:
1191:Generated_Source\PSoC6/CapSense_Structure.c ****     }
1192:Generated_Source\PSoC6/CapSense_Structure.c **** 
1193:Generated_Source\PSoC6/CapSense_Structure.c ****     return result;
1194:Generated_Source\PSoC6/CapSense_Structure.c **** }
 570              		.loc 1 1194 0
 571 002a 7047     		bx	lr
 572              	.L60:
 573              		.align	2
 574              	.L59:
 575 002c 00000000 		.word	.LANCHOR0
 576 0030 00000000 		.word	CapSense_dsRam
 577              		.cfi_endproc
 578              	.LFE131:
 579              		.size	CapSense_IsSensorActive, .-CapSense_IsSensorActive
 580              		.global	CapSense_ramIdacInit
 581              		.global	CapSense_ramWidgetInit
 582              		.global	CapSense_ioList
 583              		.global	CapSense_dsFlash
 584              		.comm	CapSense_dsRam,284,4
 585              		.section	.rodata
 586              		.align	2
 587              		.set	.LANCHOR0,. + 0
 588              		.type	CapSense_ramIdacInit, %object
 589              		.size	CapSense_ramIdacInit, 10
 590              	CapSense_ramIdacInit:
 591 0000 20       		.byte	32
 592 0001 20       		.byte	32
 593 0002 20       		.byte	32
 594 0003 20       		.byte	32
 595 0004 20       		.byte	32
 596 0005 20       		.byte	32
 597 0006 20       		.byte	32
 598 0007 20       		.byte	32
ARM GAS  C:\Users\User\AppData\Local\Temp\cczL1flU.s 			page 33


 599 0008 20       		.byte	32
 600 0009 20       		.byte	32
 601 000a 0000     		.space	2
 602              		.type	CapSense_dsFlash, %object
 603              		.size	CapSense_dsFlash, 280
 604              	CapSense_dsFlash:
 605 000c 00000000 		.word	CapSense_ioList
 606 0010 26000000 		.word	CapSense_dsRam+38
 607 0014 B2000000 		.word	CapSense_dsRam+178
 608 0018 00000000 		.word	0
 609 001c 24000000 		.word	CapSense_debounceButton0
 610 0020 01280000 		.word	10241
 611 0024 0100     		.short	1
 612 0026 01       		.byte	1
 613 0027 01       		.byte	1
 614 0028 08000000 		.word	CapSense_ioList+8
 615 002c 34000000 		.word	CapSense_dsRam+52
 616 0030 BC000000 		.word	CapSense_dsRam+188
 617 0034 00000000 		.word	0
 618 0038 20000000 		.word	CapSense_debounceButton1
 619 003c 01280000 		.word	10241
 620 0040 0100     		.short	1
 621 0042 01       		.byte	1
 622 0043 01       		.byte	1
 623 0044 10000000 		.word	CapSense_ioList+16
 624 0048 42000000 		.word	CapSense_dsRam+66
 625 004c C6000000 		.word	CapSense_dsRam+198
 626 0050 00000000 		.word	0
 627 0054 1C000000 		.word	CapSense_debounceButton2
 628 0058 01280000 		.word	10241
 629 005c 0100     		.short	1
 630 005e 01       		.byte	1
 631 005f 01       		.byte	1
 632 0060 18000000 		.word	CapSense_ioList+24
 633 0064 50000000 		.word	CapSense_dsRam+80
 634 0068 D0000000 		.word	CapSense_dsRam+208
 635 006c 00000000 		.word	0
 636 0070 18000000 		.word	CapSense_debounceButton3
 637 0074 01280000 		.word	10241
 638 0078 0100     		.short	1
 639 007a 01       		.byte	1
 640 007b 01       		.byte	1
 641 007c 20000000 		.word	CapSense_ioList+32
 642 0080 5E000000 		.word	CapSense_dsRam+94
 643 0084 DA000000 		.word	CapSense_dsRam+218
 644 0088 00000000 		.word	0
 645 008c 14000000 		.word	CapSense_debounceButton4
 646 0090 01280000 		.word	10241
 647 0094 0100     		.short	1
 648 0096 01       		.byte	1
 649 0097 01       		.byte	1
 650 0098 28000000 		.word	CapSense_ioList+40
 651 009c 6C000000 		.word	CapSense_dsRam+108
 652 00a0 E4000000 		.word	CapSense_dsRam+228
 653 00a4 00000000 		.word	0
 654 00a8 10000000 		.word	CapSense_debounceButton5
 655 00ac 01280000 		.word	10241
ARM GAS  C:\Users\User\AppData\Local\Temp\cczL1flU.s 			page 34


 656 00b0 0100     		.short	1
 657 00b2 01       		.byte	1
 658 00b3 01       		.byte	1
 659 00b4 30000000 		.word	CapSense_ioList+48
 660 00b8 7A000000 		.word	CapSense_dsRam+122
 661 00bc EE000000 		.word	CapSense_dsRam+238
 662 00c0 00000000 		.word	0
 663 00c4 0C000000 		.word	CapSense_debounceButton6
 664 00c8 01280000 		.word	10241
 665 00cc 0100     		.short	1
 666 00ce 01       		.byte	1
 667 00cf 01       		.byte	1
 668 00d0 38000000 		.word	CapSense_ioList+56
 669 00d4 88000000 		.word	CapSense_dsRam+136
 670 00d8 F8000000 		.word	CapSense_dsRam+248
 671 00dc 00000000 		.word	0
 672 00e0 08000000 		.word	CapSense_debounceButton7
 673 00e4 01280000 		.word	10241
 674 00e8 0100     		.short	1
 675 00ea 01       		.byte	1
 676 00eb 01       		.byte	1
 677 00ec 40000000 		.word	CapSense_ioList+64
 678 00f0 96000000 		.word	CapSense_dsRam+150
 679 00f4 02010000 		.word	CapSense_dsRam+258
 680 00f8 00000000 		.word	0
 681 00fc 04000000 		.word	CapSense_debounceButton8
 682 0100 01280000 		.word	10241
 683 0104 0100     		.short	1
 684 0106 01       		.byte	1
 685 0107 01       		.byte	1
 686 0108 48000000 		.word	CapSense_ioList+72
 687 010c A4000000 		.word	CapSense_dsRam+164
 688 0110 0C010000 		.word	CapSense_dsRam+268
 689 0114 00000000 		.word	0
 690 0118 00000000 		.word	CapSense_debounceButton9
 691 011c 01280000 		.word	10241
 692 0120 0100     		.short	1
 693 0122 01       		.byte	1
 694 0123 01       		.byte	1
 695              		.type	CapSense_ramWidgetInit, %object
 696              		.size	CapSense_ramWidgetInit, 140
 697              	CapSense_ramWidgetInit:
 698 0124 1000     		.short	16
 699 0126 A00F     		.short	4000
 700 0128 C8       		.byte	-56
 701 0129 C8       		.byte	-56
 702 012a 0A       		.byte	10
 703 012b 03       		.byte	3
 704 012c 1E       		.byte	30
 705 012d 20       		.byte	32
 706 012e 1000     		.short	16
 707 0130 00       		.byte	0
 708 0131 00       		.space	1
 709 0132 1000     		.short	16
 710 0134 A00F     		.short	4000
 711 0136 C8       		.byte	-56
 712 0137 C8       		.byte	-56
ARM GAS  C:\Users\User\AppData\Local\Temp\cczL1flU.s 			page 35


 713 0138 0A       		.byte	10
 714 0139 03       		.byte	3
 715 013a 1E       		.byte	30
 716 013b 20       		.byte	32
 717 013c 1000     		.short	16
 718 013e 00       		.byte	0
 719 013f 00       		.space	1
 720 0140 1000     		.short	16
 721 0142 A00F     		.short	4000
 722 0144 C8       		.byte	-56
 723 0145 C8       		.byte	-56
 724 0146 0A       		.byte	10
 725 0147 03       		.byte	3
 726 0148 1E       		.byte	30
 727 0149 20       		.byte	32
 728 014a 1000     		.short	16
 729 014c 00       		.byte	0
 730 014d 00       		.space	1
 731 014e 1000     		.short	16
 732 0150 A00F     		.short	4000
 733 0152 C8       		.byte	-56
 734 0153 C8       		.byte	-56
 735 0154 0A       		.byte	10
 736 0155 03       		.byte	3
 737 0156 1E       		.byte	30
 738 0157 20       		.byte	32
 739 0158 1000     		.short	16
 740 015a 00       		.byte	0
 741 015b 00       		.space	1
 742 015c 1000     		.short	16
 743 015e A00F     		.short	4000
 744 0160 C8       		.byte	-56
 745 0161 C8       		.byte	-56
 746 0162 0A       		.byte	10
 747 0163 03       		.byte	3
 748 0164 1E       		.byte	30
 749 0165 20       		.byte	32
 750 0166 1000     		.short	16
 751 0168 00       		.byte	0
 752 0169 00       		.space	1
 753 016a 1000     		.short	16
 754 016c A00F     		.short	4000
 755 016e C8       		.byte	-56
 756 016f C8       		.byte	-56
 757 0170 0A       		.byte	10
 758 0171 03       		.byte	3
 759 0172 1E       		.byte	30
 760 0173 20       		.byte	32
 761 0174 1000     		.short	16
 762 0176 00       		.byte	0
 763 0177 00       		.space	1
 764 0178 1000     		.short	16
 765 017a A00F     		.short	4000
 766 017c C8       		.byte	-56
 767 017d C8       		.byte	-56
 768 017e 0A       		.byte	10
 769 017f 03       		.byte	3
ARM GAS  C:\Users\User\AppData\Local\Temp\cczL1flU.s 			page 36


 770 0180 1E       		.byte	30
 771 0181 20       		.byte	32
 772 0182 1000     		.short	16
 773 0184 00       		.byte	0
 774 0185 00       		.space	1
 775 0186 1000     		.short	16
 776 0188 A00F     		.short	4000
 777 018a C8       		.byte	-56
 778 018b C8       		.byte	-56
 779 018c 0A       		.byte	10
 780 018d 03       		.byte	3
 781 018e 1E       		.byte	30
 782 018f 20       		.byte	32
 783 0190 1000     		.short	16
 784 0192 00       		.byte	0
 785 0193 00       		.space	1
 786 0194 1000     		.short	16
 787 0196 A00F     		.short	4000
 788 0198 C8       		.byte	-56
 789 0199 C8       		.byte	-56
 790 019a 0A       		.byte	10
 791 019b 03       		.byte	3
 792 019c 1E       		.byte	30
 793 019d 20       		.byte	32
 794 019e 1000     		.short	16
 795 01a0 00       		.byte	0
 796 01a1 00       		.space	1
 797 01a2 1000     		.short	16
 798 01a4 A00F     		.short	4000
 799 01a6 C8       		.byte	-56
 800 01a7 C8       		.byte	-56
 801 01a8 0A       		.byte	10
 802 01a9 03       		.byte	3
 803 01aa 1E       		.byte	30
 804 01ab 20       		.byte	32
 805 01ac 1000     		.short	16
 806 01ae 00       		.byte	0
 807 01af 00       		.space	1
 808              		.type	CapSense_ioList, %object
 809              		.size	CapSense_ioList, 80
 810              	CapSense_ioList:
 811 01b0 80043240 		.word	1077019776
 812 01b4 00       		.byte	0
 813 01b5 000000   		.space	3
 814 01b8 80043240 		.word	1077019776
 815 01bc 01       		.byte	1
 816 01bd 000000   		.space	3
 817 01c0 80043240 		.word	1077019776
 818 01c4 02       		.byte	2
 819 01c5 000000   		.space	3
 820 01c8 00053240 		.word	1077019904
 821 01cc 02       		.byte	2
 822 01cd 000000   		.space	3
 823 01d0 80043240 		.word	1077019776
 824 01d4 04       		.byte	4
 825 01d5 000000   		.space	3
 826 01d8 80043240 		.word	1077019776
ARM GAS  C:\Users\User\AppData\Local\Temp\cczL1flU.s 			page 37


 827 01dc 05       		.byte	5
 828 01dd 000000   		.space	3
 829 01e0 80043240 		.word	1077019776
 830 01e4 06       		.byte	6
 831 01e5 000000   		.space	3
 832 01e8 80043240 		.word	1077019776
 833 01ec 07       		.byte	7
 834 01ed 000000   		.space	3
 835 01f0 00053240 		.word	1077019904
 836 01f4 00       		.byte	0
 837 01f5 000000   		.space	3
 838 01f8 00053240 		.word	1077019904
 839 01fc 01       		.byte	1
 840 01fd 000000   		.space	3
 841              		.section	.rodata.str1.4,"aMS",%progbits,1
 842              		.align	2
 843              	.LC0:
 844 0000 47656E65 		.ascii	"Generated_Source\\PSoC6\\CapSense_Structure.c\000"
 844      72617465 
 844      645F536F 
 844      75726365 
 844      5C50536F 
 845              		.bss
 846              		.align	2
 847              		.type	CapSense_debounceButton9, %object
 848              		.size	CapSense_debounceButton9, 1
 849              	CapSense_debounceButton9:
 850 0000 00       		.space	1
 851 0001 000000   		.space	3
 852              		.type	CapSense_debounceButton8, %object
 853              		.size	CapSense_debounceButton8, 1
 854              	CapSense_debounceButton8:
 855 0004 00       		.space	1
 856 0005 000000   		.space	3
 857              		.type	CapSense_debounceButton7, %object
 858              		.size	CapSense_debounceButton7, 1
 859              	CapSense_debounceButton7:
 860 0008 00       		.space	1
 861 0009 000000   		.space	3
 862              		.type	CapSense_debounceButton6, %object
 863              		.size	CapSense_debounceButton6, 1
 864              	CapSense_debounceButton6:
 865 000c 00       		.space	1
 866 000d 000000   		.space	3
 867              		.type	CapSense_debounceButton5, %object
 868              		.size	CapSense_debounceButton5, 1
 869              	CapSense_debounceButton5:
 870 0010 00       		.space	1
 871 0011 000000   		.space	3
 872              		.type	CapSense_debounceButton4, %object
 873              		.size	CapSense_debounceButton4, 1
 874              	CapSense_debounceButton4:
 875 0014 00       		.space	1
 876 0015 000000   		.space	3
 877              		.type	CapSense_debounceButton3, %object
 878              		.size	CapSense_debounceButton3, 1
 879              	CapSense_debounceButton3:
ARM GAS  C:\Users\User\AppData\Local\Temp\cczL1flU.s 			page 38


 880 0018 00       		.space	1
 881 0019 000000   		.space	3
 882              		.type	CapSense_debounceButton2, %object
 883              		.size	CapSense_debounceButton2, 1
 884              	CapSense_debounceButton2:
 885 001c 00       		.space	1
 886 001d 000000   		.space	3
 887              		.type	CapSense_debounceButton1, %object
 888              		.size	CapSense_debounceButton1, 1
 889              	CapSense_debounceButton1:
 890 0020 00       		.space	1
 891 0021 000000   		.space	3
 892              		.type	CapSense_debounceButton0, %object
 893              		.size	CapSense_debounceButton0, 1
 894              	CapSense_debounceButton0:
 895 0024 00       		.space	1
 896              		.text
 897              	.Letext0:
 898              		.file 2 "d:\\cypress creator\\psoc creator\\4.2\\psoc creator\\import\\gnu\\arm\\5.4.1\\arm-none-e
 899              		.file 3 "d:\\cypress creator\\psoc creator\\4.2\\psoc creator\\import\\gnu\\arm\\5.4.1\\arm-none-e
 900              		.file 4 "Generated_Source\\PSoC6\\pdl\\devices/psoc6/ip/cyip_gpio.h"
 901              		.file 5 "Generated_Source\\PSoC6\\pdl\\drivers/peripheral/syslib/cy_syslib.h"
 902              		.file 6 "Generated_Source\\PSoC6\\CapSense_Configuration.h"
 903              		.file 7 "Generated_Source\\PSoC6\\CapSense_Structure.h"
 904              		.file 8 "Generated_Source\\PSoC6\\pdl\\cmsis/include/core_cm4.h"