ARM GAS  C:\Users\User\AppData\Local\Temp\ccu89h4W.s 			page 1


   1              		.syntax unified
   2              		.cpu cortex-m4
   3              		.eabi_attribute 27, 1
   4              		.fpu fpv4-sp-d16
   5              		.eabi_attribute 20, 1
   6              		.eabi_attribute 21, 1
   7              		.eabi_attribute 23, 3
   8              		.eabi_attribute 24, 1
   9              		.eabi_attribute 25, 1
  10              		.eabi_attribute 26, 1
  11              		.eabi_attribute 30, 1
  12              		.eabi_attribute 34, 1
  13              		.eabi_attribute 18, 4
  14              		.thumb
  15              		.syntax unified
  16              		.file	"proximity.c"
  17              		.text
  18              	.Ltext0:
  19              		.cfi_sections	.debug_frame
  20              		.section	.text.get_array,"ax",%progbits
  21              		.align	2
  22              		.global	get_array
  23              		.thumb
  24              		.thumb_func
  25              		.type	get_array, %function
  26              	get_array:
  27              	.LFB620:
  28              		.file 1 "proximity.c"
   1:proximity.c   **** /******************************************************************************
   2:proximity.c   **** * File Name: proximity.c
   3:proximity.c   **** *
   4:proximity.c   **** * Version: 1.00
   5:proximity.c   **** *
   6:proximity.c   **** * Description: This file contains functions that handle the initialization and
   7:proximity.c   **** *              the scanning of the CapSense Proximity and the Buttons
   8:proximity.c   **** *
   9:proximity.c   **** * Related Document: CE218135_BLE_Proximity.pdf
  10:proximity.c   **** *
  11:proximity.c   **** * Hardware Dependency: CY8CKIT-062-BLE PSoC 6 BLE Pioneer Kit
  12:proximity.c   **** *                      CY8CKIT-028-EPD E-INK Display Shield
  13:proximity.c   **** *
  14:proximity.c   **** ******************************************************************************
  15:proximity.c   **** * Copyright (2017), Cypress Semiconductor Corporation.
  16:proximity.c   **** ******************************************************************************
  17:proximity.c   **** * This software, including source code, documentation and related materials
  18:proximity.c   **** * ("Software") is owned by Cypress Semiconductor Corporation (Cypress) and is
  19:proximity.c   **** * protected by and subject to worldwide patent protection (United States and 
  20:proximity.c   **** * foreign), United States copyright laws and international treaty provisions. 
  21:proximity.c   **** * Cypress hereby grants to licensee a personal, non-exclusive, non-transferable
  22:proximity.c   **** * license to copy, use, modify, create derivative works of, and compile the 
  23:proximity.c   **** * Cypress source code and derivative works for the sole purpose of creating 
  24:proximity.c   **** * custom software in support of licensee product, such licensee product to be
  25:proximity.c   **** * used only in conjunction with Cypress's integrated circuit as specified in the
  26:proximity.c   **** * applicable agreement. Any reproduction, modification, translation, compilation,
  27:proximity.c   **** * or representation of this Software except as specified above is prohibited 
  28:proximity.c   **** * without the express written permission of Cypress.
  29:proximity.c   **** * 
ARM GAS  C:\Users\User\AppData\Local\Temp\ccu89h4W.s 			page 2


  30:proximity.c   **** * Disclaimer: THIS SOFTWARE IS PROVIDED AS-IS, WITH NO WARRANTY OF ANY KIND, 
  31:proximity.c   **** * EXPRESS OR IMPLIED, INCLUDING, BUT NOT LIMITED TO, NONINFRINGEMENT, IMPLIED 
  32:proximity.c   **** * WARRANTIES OF MERCHANTABILITY AND FITNESS FOR A PARTICULAR PURPOSE.
  33:proximity.c   **** * Cypress reserves the right to make changes to the Software without notice. 
  34:proximity.c   **** * Cypress does not assume any liability arising out of the application or use
  35:proximity.c   **** * of Software or any product or circuit described in the Software. Cypress does
  36:proximity.c   **** * not authorize its products for use as critical components in any products 
  37:proximity.c   **** * where a malfunction or failure may reasonably be expected to result in 
  38:proximity.c   **** * significant injury or death ("ACTIVE Risk Product"). By including Cypress's 
  39:proximity.c   **** * product in a ACTIVE Risk Product, the manufacturer of such system or application
  40:proximity.c   **** * assumes all risk of such use and in doing so indemnifies Cypress against all
  41:proximity.c   **** * liability. Use of this Software may be limited by and subject to the applicable
  42:proximity.c   **** * Cypress software license agreement.
  43:proximity.c   **** *****************************************************************************/
  44:proximity.c   **** /*******************************************************************************
  45:proximity.c   **** * This file contains functions that handle the initialization and the scanning of 
  46:proximity.c   **** * the CapSense Proximity and the Buttons
  47:proximity.c   **** *******************************************************************************/
  48:proximity.c   **** 
  49:proximity.c   **** /* Header file includes */
  50:proximity.c   **** #include <project.h>
  51:proximity.c   **** #include "proximity.h"
  52:proximity.c   **** #include "math.h"
  53:proximity.c   **** #include <stdio.h>
  54:proximity.c   **** /* Maximum value of CapSense proximity sensor data accepted by the CySmart app */
  55:proximity.c   **** #define PROX_MAX_VALUE  (uint16_t)(0x00FFu)
  56:proximity.c   **** 
  57:proximity.c   **** /*******************************************************************************
  58:proximity.c   **** * Function Name: proximity_data_t* proximity_data_t* GetProximityData(void)
  59:proximity.c   **** ********************************************************************************
  60:proximity.c   **** * Summary:
  61:proximity.c   **** *  Function that scans CapSense proximity sensor, processes information and then
  62:proximity.c   **** *  returns the data
  63:proximity.c   **** *
  64:proximity.c   **** * Parameters:
  65:proximity.c   **** *  None
  66:proximity.c   **** *
  67:proximity.c   **** * Return:
  68:proximity.c   **** *  proximity_data_t*  : address of the data-structure that stores proximity 
  69:proximity.c   **** *                       information
  70:proximity.c   **** *
  71:proximity.c   **** *******************************************************************************/
  72:proximity.c   **** void get_array(double *mass)
  73:proximity.c   **** {
  29              		.loc 1 73 0
  30              		.cfi_startproc
  31              		@ args = 0, pretend = 0, frame = 0
  32              		@ frame_needed = 0, uses_anonymous_args = 0
  33              		@ link register save eliminated.
  34              	.LVL0:
  35 0000 30B4     		push	{r4, r5}
  36              		.cfi_def_cfa_offset 8
  37              		.cfi_offset 4, -8
  38              		.cfi_offset 5, -4
  39              	.LVL1:
  40              	.LBB2:
  74:proximity.c   ****     for (int i=0; i < 10; i++)
ARM GAS  C:\Users\User\AppData\Local\Temp\ccu89h4W.s 			page 3


  41              		.loc 1 74 0
  42 0002 0022     		movs	r2, #0
  43 0004 08E0     		b	.L2
  44              	.LVL2:
  45              	.L3:
  75:proximity.c   ****     masszero[i] = mass[i];
  46              		.loc 1 75 0 discriminator 3
  47 0006 D300     		lsls	r3, r2, #3
  48 0008 C118     		adds	r1, r0, r3
  49 000a D1E90045 		ldrd	r4, [r1]
  50 000e 0449     		ldr	r1, .L5
  51 0010 0B44     		add	r3, r3, r1
  52 0012 C3E90045 		strd	r4, [r3]
  74:proximity.c   ****     for (int i=0; i < 10; i++)
  53              		.loc 1 74 0 discriminator 3
  54 0016 0132     		adds	r2, r2, #1
  55              	.LVL3:
  56              	.L2:
  74:proximity.c   ****     for (int i=0; i < 10; i++)
  57              		.loc 1 74 0 is_stmt 0 discriminator 1
  58 0018 092A     		cmp	r2, #9
  59 001a F4DD     		ble	.L3
  60              	.LBE2:
  76:proximity.c   **** }
  61              		.loc 1 76 0 is_stmt 1
  62 001c 30BC     		pop	{r4, r5}
  63              		.cfi_restore 5
  64              		.cfi_restore 4
  65              		.cfi_def_cfa_offset 0
  66 001e 7047     		bx	lr
  67              	.L6:
  68              		.align	2
  69              	.L5:
  70 0020 00000000 		.word	masszero
  71              		.cfi_endproc
  72              	.LFE620:
  73              		.size	get_array, .-get_array
  74              		.section	.text.GetProximityData,"ax",%progbits
  75              		.align	2
  76              		.global	GetProximityData
  77              		.thumb
  78              		.thumb_func
  79              		.type	GetProximityData, %function
  80              	GetProximityData:
  81              	.LFB621:
  77:proximity.c   **** proximity_data_t* GetProximityData(void)
  78:proximity.c   **** {
  82              		.loc 1 78 0
  83              		.cfi_startproc
  84              		@ args = 0, pretend = 0, frame = 0
  85              		@ frame_needed = 0, uses_anonymous_args = 0
  86 0000 08B5     		push	{r3, lr}
  87              		.cfi_def_cfa_offset 8
  88              		.cfi_offset 3, -8
  89              		.cfi_offset 14, -4
  79:proximity.c   ****     /* Structure that stores the current CapSense proximity information */
  80:proximity.c   ****     proximity_data_t  static currentProximityData = 
ARM GAS  C:\Users\User\AppData\Local\Temp\ccu89h4W.s 			page 4


  81:proximity.c   ****     {    
  82:proximity.c   ****         /* Initialize the flag that track updates to proximity information */
  83:proximity.c   ****         .proximityDataUpdated = false,
  84:proximity.c   ****         /* Initialize the proximity information */
  85:proximity.c   ****         .proximityData = 0u,
  86:proximity.c   ****     };
  87:proximity.c   ****         
  88:proximity.c   ****     /* Variables used to store the instantaneous proximity information */
  89:proximity.c   ****     uint8_t  static proximity  = 0u;
  90:proximity.c   **** 
  91:proximity.c   ****     /* Do this only when the CapSense isn't busy with a previous operation */
  92:proximity.c   ****     if (CapSense_IsBusy() == CapSense_NOT_BUSY)
  90              		.loc 1 92 0
  91 0002 FFF7FEFF 		bl	CapSense_IsBusy
  92              	.LVL4:
  93 0006 30B9     		cbnz	r0, .L8
  94              	.LBB3:
  93:proximity.c   ****     {
  94:proximity.c   ****         /* Process data from the proximity widget */
  95:proximity.c   **** 		CapSense_ProcessAllWidgets();
  95              		.loc 1 95 0
  96 0008 FFF7FEFF 		bl	CapSense_ProcessAllWidgets
  97              	.LVL5:
  96:proximity.c   ****         
  97:proximity.c   **** //        /* Check if the signal is greater than the finger threshold */
  98:proximity.c   **** //        if(CapSense_PROXIMITY0_SNS0_DIFF_VALUE > 
  99:proximity.c   **** //           CapSense_PROXIMITY0_FINGER_TH_VALUE)
 100:proximity.c   **** //        {
 101:proximity.c   **** //            /*If proximity value is not within the range, cap the value */
 102:proximity.c   **** //    		if((CapSense_PROXIMITY0_SNS0_DIFF_VALUE -
 103:proximity.c   **** //                CapSense_PROXIMITY0_FINGER_TH_VALUE) 
 104:proximity.c   **** //                <= PROX_MAX_VALUE)
 105:proximity.c   **** //    		{
 106:proximity.c   **** //                /* Store the proximity data */
 107:proximity.c   **** //    	         proximity =  (uint8_t)(CapSense_PROXIMITY0_SNS0_DIFF_VALUE - 
 108:proximity.c   **** //                                        CapSense_PROXIMITY0_FINGER_TH_VALUE);
 109:proximity.c   **** //    		}
 110:proximity.c   **** //            /* Store the maximum value otherwise */
 111:proximity.c   **** //            else
 112:proximity.c   **** //            {
 113:proximity.c   **** //                proximity = (uint8_t)PROX_MAX_VALUE;
 114:proximity.c   **** //            }
 115:proximity.c   **** //        }
 116:proximity.c   **** //        /* Clear the value if the signal is less than the finger threshold */
 117:proximity.c   **** //        else
 118:proximity.c   **** //        {
 119:proximity.c   **** //           proximity = 0u; 
 120:proximity.c   **** //        }
 121:proximity.c   **** //    
 122:proximity.c   **** 
 123:proximity.c   ****         double diff = CapSense_BUTTON0_FINGER_TH_VALUE;
 124:proximity.c   **** 
 125:proximity.c   ****   /*      
 126:proximity.c   ****         double mass[10] = {fabs(CapSense_BUTTON0_SNS0_RAW0_VALUE-masszero[0]), fabs(CapSense_BUTTON
 127:proximity.c   ****                            fabs(CapSense_BUTTON3_SNS0_RAW0_VALUE-masszero[3]), fabs(CapSense_BUTTON
 128:proximity.c   ****                            fabs(CapSense_BUTTON6_SNS0_RAW0_VALUE-masszero[6]), fabs(CapSense_BUTTON
 129:proximity.c   ****                            fabs(CapSense_BUTTON9_SNS0_RAW0_VALUE-masszero[9])};
ARM GAS  C:\Users\User\AppData\Local\Temp\ccu89h4W.s 			page 5


 130:proximity.c   ****        */
 131:proximity.c   ****         int mass[10] = {CapSense_SNS_STATUS0_VALUE, CapSense_SNS_STATUS1_VALUE, CapSense_SNS_STATUS
 132:proximity.c   ****                            CapSense_SNS_STATUS3_VALUE, CapSense_SNS_STATUS4_VALUE, CapSense_SNS_STA
 133:proximity.c   ****                            CapSense_SNS_STATUS6_VALUE, CapSense_SNS_STATUS7_VALUE, CapSense_SNS_STA
 134:proximity.c   ****                            CapSense_SNS_STATUS9_VALUE};
 135:proximity.c   **** 
 136:proximity.c   ****         /*
 137:proximity.c   ****         if ((fabs(mass[9] - mass[5]) <= diff) && (mass[9] - mass[8] <= diff))
 138:proximity.c   ****         { // рівень води нижче середини
 139:proximity.c   ****         for (i = 5; i >= 0; i--)
 140:proximity.c   ****         {
 141:proximity.c   ****         h2 = mass[i];
 142:proximity.c   ****         h1 = mass[i-1];
 143:proximity.c   ****         if (fabs(h2 - h1) <= diff)
 144:proximity.c   ****         continue; else {proximity = i * 25u; break;}
 145:proximity.c   ****         } 
 146:proximity.c   ****         if (i == 0) proximity = 0u; 
 147:proximity.c   ****         }
 148:proximity.c   ****         else
 149:proximity.c   ****         {// рівень води вище середини
 150:proximity.c   ****         for (i = 9; i >5; i--)
 151:proximity.c   ****         {
 152:proximity.c   ****         h2 = mass[i];
 153:proximity.c   ****         h1 = mass[i-1];
 154:proximity.c   ****         if (fabs(h2 - h1) <= diff)
 155:proximity.c   ****         continue; else {proximity = i * 25u; break;}
 156:proximity.c   ****         }
 157:proximity.c   ****         if (fabs(mass[5] - mass[4]) > diff) proximity = 5 * 25u; else  i = 11;
 158:proximity.c   ****         if (i == 11) proximity = (uint8_t)PROX_MAX_VALUE;
 159:proximity.c   ****         }  
 160:proximity.c   ****         
 161:proximity.c   ****         */
 162:proximity.c   ****         
 163:proximity.c   ****       /*  
 164:proximity.c   ****         for (int i = 0; i <=9; i++)
 165:proximity.c   ****         {
 166:proximity.c   ****          if (mass[i] == 1)
 167:proximity.c   ****         continue;
 168:proximity.c   ****         else
 169:proximity.c   ****         {
 170:proximity.c   ****          proximity = i * 25u; break;   
 171:proximity.c   ****         }
 172:proximity.c   ****         }*/
 173:proximity.c   ****         
 174:proximity.c   ****         proximity = 25u;
  98              		.loc 1 174 0
  99 000c 1922     		movs	r2, #25
 100 000e 094B     		ldr	r3, .L12
 101 0010 1A70     		strb	r2, [r3]
 175:proximity.c   ****         
 176:proximity.c   ****         //proximity = (uint8_t)PROX_MAX_VALUE;
 177:proximity.c   ****         //if (CapSense_BUTTON0_SNS0_DIFF_VALUE <= PROX_MAX_VALUE)
 178:proximity.c   ****         //    proximity = CapSense_BUTTON0_SNS0_DIFF_VALUE * 
 179:proximity.c   ****         /* Start the next CapSense scan */
 180:proximity.c   ****         //proximity = 64u;
 181:proximity.c   ****         CapSense_ScanAllWidgets();
 102              		.loc 1 181 0
ARM GAS  C:\Users\User\AppData\Local\Temp\ccu89h4W.s 			page 6


 103 0012 FFF7FEFF 		bl	CapSense_ScanAllWidgets
 104              	.LVL6:
 105              	.L8:
 106              	.LBE3:
 182:proximity.c   ****         
 183:proximity.c   ****     }
 184:proximity.c   ****                       
 185:proximity.c   ****     /* Check if the proximity data has changed */
 186:proximity.c   ****     if (proximity != currentProximityData.proximityData)
 107              		.loc 1 186 0
 108 0016 074B     		ldr	r3, .L12
 109 0018 5A79     		ldrb	r2, [r3, #5]	@ zero_extendqisi2
 110 001a 1B78     		ldrb	r3, [r3]	@ zero_extendqisi2
 111 001c 9A42     		cmp	r2, r3
 112 001e 04D0     		beq	.L9
 187:proximity.c   ****     {
 188:proximity.c   ****         /* Proximity proximity position */
 189:proximity.c   ****         currentProximityData.proximityData = proximity;
 113              		.loc 1 189 0
 114 0020 044A     		ldr	r2, .L12
 115 0022 5371     		strb	r3, [r2, #5]
 190:proximity.c   ****         /* Proximity data updated */
 191:proximity.c   ****         currentProximityData.proximityDataUpdated = true;
 116              		.loc 1 191 0
 117 0024 0123     		movs	r3, #1
 118 0026 1371     		strb	r3, [r2, #4]
 119 0028 02E0     		b	.L10
 120              	.L9:
 192:proximity.c   ****     }
 193:proximity.c   ****     else
 194:proximity.c   ****     {  
 195:proximity.c   ****        /* Proximity data not updated */
 196:proximity.c   ****        currentProximityData.proximityDataUpdated = false; 
 121              		.loc 1 196 0
 122 002a 0022     		movs	r2, #0
 123 002c 014B     		ldr	r3, .L12
 124 002e 1A71     		strb	r2, [r3, #4]
 125              	.L10:
 197:proximity.c   ****     }
 198:proximity.c   ****         
 199:proximity.c   ****     /* return the proximity information */
 200:proximity.c   ****     return &currentProximityData;
 201:proximity.c   **** }
 126              		.loc 1 201 0
 127 0030 0148     		ldr	r0, .L12+4
 128 0032 08BD     		pop	{r3, pc}
 129              	.L13:
 130              		.align	2
 131              	.L12:
 132 0034 00000000 		.word	.LANCHOR0
 133 0038 04000000 		.word	.LANCHOR0+4
 134              		.cfi_endproc
 135              	.LFE621:
 136              		.size	GetProximityData, .-GetProximityData
 137              		.section	.text.IsCapSenseReadyForLowPowerMode,"ax",%progbits
 138              		.align	2
 139              		.global	IsCapSenseReadyForLowPowerMode
ARM GAS  C:\Users\User\AppData\Local\Temp\ccu89h4W.s 			page 7


 140              		.thumb
 141              		.thumb_func
 142              		.type	IsCapSenseReadyForLowPowerMode, %function
 143              	IsCapSenseReadyForLowPowerMode:
 144              	.LFB622:
 202:proximity.c   **** 
 203:proximity.c   **** 
 204:proximity.c   **** 
 205:proximity.c   **** /*******************************************************************************
 206:proximity.c   **** * Function Name: bool IsCapSenseReadyForLowPowerMode(void)
 207:proximity.c   **** ********************************************************************************
 208:proximity.c   **** *
 209:proximity.c   **** * Summary:
 210:proximity.c   **** *  Function to check if CapSense is ready to enter low power mode
 211:proximity.c   **** *
 212:proximity.c   **** * Parameters:
 213:proximity.c   **** *  None
 214:proximity.c   **** *
 215:proximity.c   **** * Return:
 216:proximity.c   **** *  bool     : true if ready to enter low power mode, false otherwise
 217:proximity.c   **** *
 218:proximity.c   **** * Side Effects:
 219:proximity.c   **** *  None
 220:proximity.c   **** *
 221:proximity.c   **** *******************************************************************************/
 222:proximity.c   **** bool  IsCapSenseReadyForLowPowerMode(void)
 223:proximity.c   **** {
 145              		.loc 1 223 0
 146              		.cfi_startproc
 147              		@ args = 0, pretend = 0, frame = 0
 148              		@ frame_needed = 0, uses_anonymous_args = 0
 149 0000 08B5     		push	{r3, lr}
 150              		.cfi_def_cfa_offset 8
 151              		.cfi_offset 3, -8
 152              		.cfi_offset 14, -4
 224:proximity.c   ****     /* Variable that stores the return flag */
 225:proximity.c   ****     bool lowPowerModeReady;
 226:proximity.c   ****     
 227:proximity.c   ****     /* Don't enter low power mode if CapSense is busy with a scan */
 228:proximity.c   ****     if(CapSense_IsBusy() != CapSense_NOT_BUSY)
 153              		.loc 1 228 0
 154 0002 FFF7FEFF 		bl	CapSense_IsBusy
 155              	.LVL7:
 156 0006 08B1     		cbz	r0, .L16
 229:proximity.c   ****     {
 230:proximity.c   ****         lowPowerModeReady=false;
 157              		.loc 1 230 0
 158 0008 0020     		movs	r0, #0
 159 000a 08BD     		pop	{r3, pc}
 160              	.L16:
 231:proximity.c   ****     }
 232:proximity.c   ****     else
 233:proximity.c   ****     {
 234:proximity.c   ****         lowPowerModeReady=true;
 161              		.loc 1 234 0
 162 000c 0120     		movs	r0, #1
 163              	.LVL8:
ARM GAS  C:\Users\User\AppData\Local\Temp\ccu89h4W.s 			page 8


 235:proximity.c   ****     }
 236:proximity.c   ****     
 237:proximity.c   ****     /* Return  the low power mode entry readiness */
 238:proximity.c   ****     return lowPowerModeReady;
 239:proximity.c   **** }
 164              		.loc 1 239 0
 165 000e 08BD     		pop	{r3, pc}
 166              		.cfi_endproc
 167              	.LFE622:
 168              		.size	IsCapSenseReadyForLowPowerMode, .-IsCapSenseReadyForLowPowerMode
 169              		.section	.text.InitCapSense,"ax",%progbits
 170              		.align	2
 171              		.global	InitCapSense
 172              		.thumb
 173              		.thumb_func
 174              		.type	InitCapSense, %function
 175              	InitCapSense:
 176              	.LFB623:
 240:proximity.c   **** 
 241:proximity.c   **** /*******************************************************************************
 242:proximity.c   **** * Function Name: void InitCapSense(void)
 243:proximity.c   **** ********************************************************************************
 244:proximity.c   **** * Summary:
 245:proximity.c   **** *  Initializes CapSense proximity sensing
 246:proximity.c   **** *
 247:proximity.c   **** * Parameters:
 248:proximity.c   **** *  void
 249:proximity.c   **** *
 250:proximity.c   **** * Return:
 251:proximity.c   **** *  void
 252:proximity.c   **** *
 253:proximity.c   **** *******************************************************************************/
 254:proximity.c   **** void InitCapSense(void)
 255:proximity.c   **** {
 177              		.loc 1 255 0
 178              		.cfi_startproc
 179              		@ args = 0, pretend = 0, frame = 0
 180              		@ frame_needed = 0, uses_anonymous_args = 0
 181 0000 08B5     		push	{r3, lr}
 182              		.cfi_def_cfa_offset 8
 183              		.cfi_offset 3, -8
 184              		.cfi_offset 14, -4
 256:proximity.c   ****     /* Start the CapSense component and initialize the baselines */
 257:proximity.c   ****     CapSense_Start();
 185              		.loc 1 257 0
 186 0002 FFF7FEFF 		bl	CapSense_Start
 187              	.LVL9:
 188 0006 08BD     		pop	{r3, pc}
 189              		.cfi_endproc
 190              	.LFE623:
 191              		.size	InitCapSense, .-InitCapSense
 192              		.comm	masszero,80,8
 193              		.bss
 194              		.align	2
 195              		.set	.LANCHOR0,. + 0
 196              		.type	proximity.19055, %object
 197              		.size	proximity.19055, 1
ARM GAS  C:\Users\User\AppData\Local\Temp\ccu89h4W.s 			page 9


 198              	proximity.19055:
 199 0000 00       		.space	1
 200 0001 000000   		.space	3
 201              		.type	currentProximityData.19054, %object
 202              		.size	currentProximityData.19054, 2
 203              	currentProximityData.19054:
 204 0004 0000     		.space	2
 205              		.text
 206              	.Letext0:
 207              		.file 2 "d:\\cypress creator\\psoc creator\\4.2\\psoc creator\\import\\gnu\\arm\\5.4.1\\arm-none-e
 208              		.file 3 "d:\\cypress creator\\psoc creator\\4.2\\psoc creator\\import\\gnu\\arm\\5.4.1\\arm-none-e
 209              		.file 4 "Generated_Source\\PSoC6\\pdl\\drivers/peripheral/syslib/cy_syslib.h"
 210              		.file 5 "Generated_Source\\PSoC6\\pdl\\drivers/peripheral/tcpwm/cy_tcpwm_counter.h"
 211              		.file 6 "Generated_Source\\PSoC6\\pdl\\drivers/peripheral/scb/cy_scb_ezi2c.h"
 212              		.file 7 "Generated_Source\\PSoC6\\pdl\\drivers/peripheral/scb/cy_scb_spi.h"
 213              		.file 8 "Generated_Source\\PSoC6\\pdl\\middleware/ble/cy_ble_stack.h"
 214              		.file 9 "Generated_Source\\PSoC6\\pdl\\middleware/ble/cy_ble_stack_host_main.h"
 215              		.file 10 "Generated_Source\\PSoC6\\pdl\\middleware/ble/cy_ble_gap.h"
 216              		.file 11 "Generated_Source\\PSoC6/CapSense_Configuration.h"
 217              		.file 12 "Generated_Source\\PSoC6/CapSense_Structure.h"
 218              		.file 13 "proximity.h"
 219              		.file 14 "Generated_Source\\PSoC6\\pdl\\cmsis/include/core_cm4.h"
 220              		.file 15 "Generated_Source\\PSoC6/CY_EINK_SPIM.h"
 221              		.file 16 "Generated_Source\\PSoC6/CY_EINK_Timer.h"
 222              		.file 17 "Generated_Source\\PSoC6/EZI2C.h"
 223              		.file 18 "Generated_Source\\PSoC6/CapSense_Control.h"
 224              		.file 19 "Generated_Source\\PSoC6/CapSense_Sensing.h"